Certificate:
    Data:
        Version: 3 (0x2)
        Serial Number: 5 (0x5)
    Signature Algorithm: sha256WithRSAEncryption
        Issuer: CN=tdCA, ST=Pontevedra, C=ES/emailAddress=tdca@gradiant.org, O=Gradiant, OU=CA
        Validity
            Not Before: Sep 13 17:59:00 2017 GMT
            Not After : Sep 12 17:59:00 2022 GMT
        Subject: CN=anonymization, ST=Pontevedra, C=ES/emailAddress=anonymization@gradiant.org, O=Gradiant, OU=Anonymization
        Subject Public Key Info:
            Public Key Algorithm: rsaEncryption
                Public-Key: (4096 bit)
                Modulus:
                    00:bd:43:45:d5:b4:56:c7:23:45:49:7f:9c:b2:e3:
                    79:17:e7:c1:96:43:71:9d:22:40:20:18:41:71:fe:
                    2b:16:c3:37:0b:63:ad:86:35:2e:33:07:2c:45:c4:
                    05:cc:71:1d:7e:d2:6c:f6:94:81:0e:5e:23:3c:49:
                    2e:69:61:4f:e4:12:5f:cf:8c:18:c7:5a:d4:9f:3a:
                    65:83:42:89:bb:2b:8f:8c:81:de:64:56:52:bc:73:
                    b3:50:51:87:08:55:76:b3:96:37:64:6a:ca:d6:d2:
                    67:7d:31:a6:7b:e6:2f:11:e8:b5:12:a7:bb:49:6a:
                    b8:00:16:02:1f:52:5e:b1:71:62:db:8e:b4:bb:31:
                    17:fc:ce:45:54:7c:8b:9a:78:ec:04:5c:ab:fc:91:
                    22:18:f6:05:4d:7b:84:1b:28:02:43:8e:4a:c4:3b:
                    53:da:da:3f:85:76:27:09:86:1a:10:3f:10:de:c9:
                    99:6b:3f:fe:e4:6a:6e:93:38:7f:ec:50:0e:a4:59:
                    d0:db:c1:b2:81:9d:89:ed:b8:0c:b2:b1:57:f3:dc:
                    23:c9:06:5e:58:5e:ef:2f:98:a5:aa:99:5a:dc:56:
                    c7:33:08:ae:80:58:01:ca:bb:b6:95:f9:d7:58:65:
                    0a:cd:ee:38:d0:dc:a8:0c:bc:b4:fe:e5:6a:2f:87:
                    66:39:69:6d:76:c4:69:b7:b1:71:00:fc:d8:2f:0f:
                    c4:ec:e2:48:31:7a:4a:d3:2d:12:c4:da:e2:b0:26:
                    55:bc:21:f9:23:43:8d:9e:af:39:a6:05:e4:35:01:
                    eb:be:97:6d:0f:03:e1:37:2e:8a:c8:6e:d8:43:fb:
                    ed:aa:fe:32:f3:20:e1:a4:07:1a:9d:9f:b2:65:47:
                    b2:c7:98:05:1a:88:07:49:64:d7:62:f3:ad:a9:f9:
                    37:2b:71:52:2b:a5:83:5f:18:84:c8:9b:cc:ae:9f:
                    1d:40:66:24:2c:ac:57:be:25:b8:a8:b6:b7:7f:ac:
                    50:8d:65:15:de:19:c2:11:c7:f7:12:f6:8e:cd:d6:
                    26:cb:6f:d3:43:4c:4a:0b:c8:22:b1:ae:b5:af:89:
                    8c:6d:e8:4b:ed:f2:e2:9c:bc:03:31:8a:fa:c3:c7:
                    44:7e:5c:74:d3:8c:a5:40:c4:fb:1c:ea:85:b3:c0:
                    c1:27:a6:41:a3:63:15:22:4f:6d:7f:c4:33:a3:43:
                    d4:5a:39:75:db:88:a6:e6:0e:a3:be:22:01:91:04:
                    66:0d:84:45:69:55:c0:99:03:f3:0a:fe:1b:3b:b0:
                    dd:2d:03:db:ac:e7:e1:a6:b7:97:eb:7d:a7:20:b3:
                    9a:93:47:f6:0f:fe:0a:06:05:df:61:ec:83:16:23:
                    bb:73:bd
                Exponent: 65537 (0x10001)
        X509v3 extensions:
            X509v3 Basic Constraints: 
                CA:FALSE
            X509v3 Key Usage: 
                Digital Signature, Non Repudiation, Key Encipherment
            X509v3 Subject Alternative Name: 
                DNS:anonymization
    Signature Algorithm: sha256WithRSAEncryption
         31:f9:86:98:02:21:31:2b:a0:2f:36:bf:20:8f:e3:4d:b8:fa:
         0c:4e:48:42:b6:4f:e7:05:62:c6:84:c2:10:38:35:30:b8:df:
         e3:74:7b:0e:97:e6:e3:0c:90:74:7d:7b:8d:b4:d1:85:55:b4:
         2c:76:f8:a9:10:2d:e0:e4:28:f5:52:ee:ef:18:0e:13:01:9f:
         76:0b:d3:31:c5:f6:33:ca:95:36:b1:3d:ef:38:3c:70:73:29:
         1a:39:19:68:34:18:d2:f5:32:e6:ac:e5:40:0a:da:80:e6:ce:
         31:51:60:20:43:b7:77:b4:eb:9e:8f:77:20:7f:97:25:39:82:
         4d:1a:4b:7e:32:20:29:c4:a4:9a:e6:b7:08:01:f4:c5:7e:e5:
         5d:26:61:a4:6e:dd:6b:86:3d:b2:3c:e3:fc:8e:e3:2d:b4:6b:
         de:67:7d:3b:cd:91:18:e7:39:6c:83:40:8e:ea:fa:c0:7d:df:
         c3:04:f8:ee:f0:1a:a5:ce:13:d4:9d:67:0c:c4:fb:24:76:eb:
         1a:d5:41:4b:13:c6:ef:33:c9:2a:9b:01:65:21:12:30:ae:60:
         9e:5b:6a:4d:bd:4a:03:04:68:7a:a5:9c:88:0c:ef:52:ae:89:
         5c:d7:f8:6d:f8:05:3e:45:96:72:77:ef:10:71:ce:1c:ea:74:
         2a:9b:0e:9a
-----BEGIN CERTIFICATE-----
MIIEszCCA5ugAwIBAgIBBTANBgkqhkiG9w0BAQsFADBzMQ0wCwYDVQQDEwR0ZENB
MRMwEQYDVQQIEwpQb250ZXZlZHJhMQswCQYDVQQGEwJFUzEgMB4GCSqGSIb3DQEJ
ARYRdGRjYUBncmFkaWFudC5vcmcxETAPBgNVBAoTCEdyYWRpYW50MQswCQYDVQQL
EwJDQTAeFw0xNzA5MTMxNzU5MDBaFw0yMjA5MTIxNzU5MDBaMIGQMRYwFAYDVQQD
Ew1hbm9ueW1pemF0aW9uMRMwEQYDVQQIEwpQb250ZXZlZHJhMQswCQYDVQQGEwJF
UzEpMCcGCSqGSIb3DQEJARYaYW5vbnltaXphdGlvbkBncmFkaWFudC5vcmcxETAP
BgNVBAoTCEdyYWRpYW50MRYwFAYDVQQLEw1Bbm9ueW1pemF0aW9uMIICIjANBgkq
hkiG9w0BAQEFAAOCAg8AMIICCgKCAgEAvUNF1bRWxyNFSX+csuN5F+fBlkNxnSJA
IBhBcf4rFsM3C2OthjUuMwcsRcQFzHEdftJs9pSBDl4jPEkuaWFP5BJfz4wYx1rU
nzplg0KJuyuPjIHeZFZSvHOzUFGHCFV2s5Y3ZGrK1tJnfTGme+YvEei1Eqe7SWq4
ABYCH1JesXFi2460uzEX/M5FVHyLmnjsBFyr/JEiGPYFTXuEGygCQ45KxDtT2to/
hXYnCYYaED8Q3smZaz/+5Gpukzh/7FAOpFnQ28GygZ2J7bgMsrFX89wjyQZeWF7v
L5ilqpla3FbHMwiugFgByru2lfnXWGUKze440NyoDLy0/uVqL4dmOWltdsRpt7Fx
APzYLw/E7OJIMXpK0y0SxNrisCZVvCH5I0ONnq85pgXkNQHrvpdtDwPhNy6KyG7Y
Q/vtqv4y8yDhpAcanZ+yZUeyx5gFGogHSWTXYvOtqfk3K3FSK6WDXxiEyJvMrp8d
QGYkLKxXviW4qLa3f6xQjWUV3hnCEcf3EvaOzdYmy2/TQ0xKC8gisa61r4mMbehL
7fLinLwDMYr6w8dEflx004ylQMT7HOqFs8DBJ6ZBo2MVIk9tf8Qzo0PUWjl124im
5g6jviIBkQRmDYRFaVXAmQPzCv4bO7DdLQPbrOfhpreX632nILOak0f2D/4KBgXf
YeyDFiO7c70CAwEAAaM0MDIwCQYDVR0TBAIwADALBgNVHQ8EBAMCBeAwGAYDVR0R
BBEwD4INYW5vbnltaXphdGlvbjANBgkqhkiG9w0BAQsFAAOCAQEAMfmGmAIhMSug
Lza/II/jTbj6DE5IQrZP5wVixoTCEDg1MLjf43R7Dpfm4wyQdH17jbTRhVW0LHb4
qRAt4OQo9VLu7xgOEwGfdgvTMcX2M8qVNrE97zg8cHMpGjkZaDQY0vUy5qzlQAra
gObOMVFgIEO3d7Trno93IH+XJTmCTRpLfjIgKcSkmua3CAH0xX7lXSZhpG7da4Y9
sjzj/I7jLbRr3md9O82RGOc5bINAjur6wH3fwwT47vAapc4T1J1nDMT7JHbrGtVB
SxPG7zPJKpsBZSESMK5gnltqTb1KAwRoeqWciAzvUq6JXNf4bfgFPkWWcnfvEHHO
HOp0KpsOmg==
-----END CERTIFICATE-----
