Certificate:
    Data:
        Version: 3 (0x2)
        Serial Number: 1 (0x1)
    Signature Algorithm: sha256WithRSAEncryption
        Issuer: CN=tdCA, ST=Pontevedra, C=ES/emailAddress=tdca@gradiant.org, O=Gradiant, OU=CA
        Validity
            Not Before: Feb 23 17:31:14 2017 GMT
            Not After : Feb 22 17:31:14 2022 GMT
        Subject: CN=broker-td, ST=Pontevedra, C=ES/emailAddress=broker_td@gradiant.org, O=Gradiant, OU=Broker
        Subject Public Key Info:
            Public Key Algorithm: rsaEncryption
                Public-Key: (4096 bit)
                Modulus:
                    00:d2:33:68:6b:ce:34:de:d8:67:69:10:fe:bd:4a:
                    f7:6f:39:15:5f:ce:32:76:a0:0a:29:aa:07:8b:9d:
                    8d:c3:b1:ae:e3:70:4f:96:8c:da:9e:0d:e9:77:9e:
                    8f:66:d0:0b:ff:d3:9a:ed:ac:f3:31:75:30:f6:97:
                    e2:0c:89:a1:17:0a:c1:a5:2c:39:6a:ec:87:8d:a7:
                    e0:58:5f:1d:79:71:1b:ff:ce:f9:b5:79:ac:d4:b2:
                    30:ca:55:30:a2:ab:bb:95:2a:5a:6b:e7:71:ea:ee:
                    9d:e7:16:ca:2e:8b:4b:ba:0f:51:3a:e8:95:4c:b4:
                    c3:ea:cd:ae:c0:c8:3b:09:3f:be:67:72:7d:83:76:
                    cc:48:36:0c:25:cc:69:37:fc:3e:2c:94:39:ae:93:
                    d1:d7:44:e0:05:96:8b:b2:c7:c0:e2:4c:3c:5f:56:
                    3c:9b:5c:db:8e:b2:0b:45:b6:e1:2a:3d:7c:6c:e5:
                    86:ea:f7:7e:5b:d8:7a:9c:22:7b:22:32:bd:de:22:
                    a7:c3:66:e1:1a:4a:1c:84:af:3d:ff:34:8b:57:ad:
                    af:f5:be:4a:dc:e0:86:80:76:c0:0a:76:19:3e:04:
                    29:fa:3e:36:db:0c:92:0d:a9:2c:66:c9:38:da:90:
                    1c:e1:d0:46:c4:97:e5:8d:30:fb:96:e4:10:30:7c:
                    71:a2:f4:45:68:36:50:3f:ba:7d:ed:c8:49:d2:24:
                    a6:c0:aa:73:88:72:57:1b:55:b7:08:9a:aa:fd:23:
                    75:f2:08:54:1b:9d:e9:90:9d:76:20:45:f2:30:15:
                    fc:eb:cc:5a:15:45:7b:22:d5:54:ab:99:31:bd:40:
                    2c:0a:67:97:5f:ed:f8:12:1f:9c:2f:6b:9b:53:82:
                    f2:ea:bb:fe:3b:6c:56:a9:96:bd:df:92:05:d8:b8:
                    58:91:29:39:cc:d6:9c:21:b4:4b:4e:0d:b8:3c:c4:
                    0e:13:50:9e:46:a7:2b:b8:d0:29:67:d0:71:07:6e:
                    cc:73:4c:d2:fa:10:ec:f7:0f:1a:be:b4:a6:eb:83:
                    91:49:e0:d8:70:b2:8f:50:b2:b8:73:67:d0:69:ed:
                    57:bb:4a:ff:24:0f:63:6c:6d:57:81:66:89:45:e7:
                    c5:09:68:55:e6:96:f9:46:1a:53:0f:bd:5d:42:4e:
                    9b:94:0a:df:7d:1f:1d:1d:6c:82:10:d6:51:7c:7f:
                    91:4d:32:0e:a8:2d:e8:62:b2:54:ea:1c:35:f4:e0:
                    f2:c6:cb:95:ae:3d:d5:12:82:0b:c8:06:47:5a:3d:
                    29:b8:b8:60:52:ec:1b:3a:21:27:d3:96:d6:8d:ac:
                    21:15:4a:ce:96:fd:7b:51:71:d5:b4:6e:d1:4c:36:
                    cd:ab:19
                Exponent: 65537 (0x10001)
        X509v3 extensions:
            X509v3 Basic Constraints: 
                CA:FALSE
            X509v3 Key Usage: 
                Digital Signature, Non Repudiation, Key Encipherment
            X509v3 Subject Alternative Name: 
                DNS:broker-td
    Signature Algorithm: sha256WithRSAEncryption
         57:92:e8:b4:fb:89:df:30:8b:8a:5c:79:b0:8f:9f:0f:15:fc:
         bd:cd:48:d9:61:77:ef:7d:db:2d:dd:48:dc:1a:30:98:b5:92:
         5d:3a:1d:8c:bb:89:01:dc:26:38:c4:64:bb:33:42:e5:20:c3:
         f6:e4:8e:21:36:cc:55:24:68:be:1e:3c:d1:93:1a:19:af:10:
         5a:54:9f:a0:9a:ff:5a:26:ad:b3:6f:c0:b8:78:bb:f3:a8:0a:
         bf:50:0e:ab:c6:ec:b4:83:e7:f9:79:cc:84:c9:9e:fb:95:24:
         2a:bf:0c:04:e3:af:7c:b9:6c:2e:67:5c:2b:05:b4:c1:61:38:
         08:ff:8a:87:86:ec:9f:72:88:4e:01:19:4e:0b:ee:3e:67:cc:
         28:a6:7a:32:2c:00:27:36:1a:d2:ec:95:2a:4c:40:52:48:00:
         50:df:6f:cb:46:5f:07:fe:d4:33:61:e5:44:fd:dc:5b:c5:6d:
         79:3f:37:46:89:ab:b5:47:17:6f:43:f3:8d:1b:c2:e4:c1:4e:
         ff:e7:d2:7d:59:47:b8:5e:fa:0c:2b:4e:65:0a:cd:c7:00:ba:
         77:fa:cc:b4:ac:ed:a6:77:84:5b:81:a7:6d:78:74:92:bd:bd:
         33:d3:0f:da:50:45:09:c3:fe:0b:30:84:1e:c7:19:a6:56:36:
         4b:52:42:7b
-----BEGIN CERTIFICATE-----
MIIEoDCCA4igAwIBAgIBATANBgkqhkiG9w0BAQsFADBzMQ0wCwYDVQQDEwR0ZENB
MRMwEQYDVQQIEwpQb250ZXZlZHJhMQswCQYDVQQGEwJFUzEgMB4GCSqGSIb3DQEJ
ARYRdGRjYUBncmFkaWFudC5vcmcxETAPBgNVBAoTCEdyYWRpYW50MQswCQYDVQQL
EwJDQTAeFw0xNzAyMjMxNzMxMTRaFw0yMjAyMjIxNzMxMTRaMIGBMRIwEAYDVQQD
Ewlicm9rZXItdGQxEzARBgNVBAgTClBvbnRldmVkcmExCzAJBgNVBAYTAkVTMSUw
IwYJKoZIhvcNAQkBFhZicm9rZXJfdGRAZ3JhZGlhbnQub3JnMREwDwYDVQQKEwhH
cmFkaWFudDEPMA0GA1UECxMGQnJva2VyMIICIjANBgkqhkiG9w0BAQEFAAOCAg8A
MIICCgKCAgEA0jNoa8403thnaRD+vUr3bzkVX84ydqAKKaoHi52Nw7Gu43BPloza
ng3pd56PZtAL/9Oa7azzMXUw9pfiDImhFwrBpSw5auyHjafgWF8deXEb/875tXms
1LIwylUwoqu7lSpaa+dx6u6d5xbKLotLug9ROuiVTLTD6s2uwMg7CT++Z3J9g3bM
SDYMJcxpN/w+LJQ5rpPR10TgBZaLssfA4kw8X1Y8m1zbjrILRbbhKj18bOWG6vd+
W9h6nCJ7IjK93iKnw2bhGkochK89/zSLV62v9b5K3OCGgHbACnYZPgQp+j422wyS
DaksZsk42pAc4dBGxJfljTD7luQQMHxxovRFaDZQP7p97chJ0iSmwKpziHJXG1W3
CJqq/SN18ghUG53pkJ12IEXyMBX868xaFUV7ItVUq5kxvUAsCmeXX+34Eh+cL2ub
U4Ly6rv+O2xWqZa935IF2LhYkSk5zNacIbRLTg24PMQOE1CeRqcruNApZ9BxB27M
c0zS+hDs9w8avrSm64ORSeDYcLKPULK4c2fQae1Xu0r/JA9jbG1XgWaJRefFCWhV
5pb5RhpTD71dQk6blArffR8dHWyCENZRfH+RTTIOqC3oYrJU6hw19ODyxsuVrj3V
EoILyAZHWj0puLhgUuwbOiEn05bWjawhFUrOlv17UXHVtG7RTDbNqxkCAwEAAaMw
MC4wCQYDVR0TBAIwADALBgNVHQ8EBAMCBeAwFAYDVR0RBA0wC4IJYnJva2VyLXRk
MA0GCSqGSIb3DQEBCwUAA4IBAQBXkui0+4nfMIuKXHmwj58PFfy9zUjZYXfvfdst
3UjcGjCYtZJdOh2Mu4kB3CY4xGS7M0LlIMP25I4hNsxVJGi+HjzRkxoZrxBaVJ+g
mv9aJq2zb8C4eLvzqAq/UA6rxuy0g+f5ecyEyZ77lSQqvwwE4698uWwuZ1wrBbTB
YTgI/4qHhuyfcohOARlOC+4+Z8wopnoyLAAnNhrS7JUqTEBSSABQ32/LRl8H/tQz
YeVE/dxbxW15PzdGiau1RxdvQ/ONG8LkwU7/59J9WUe4XvoMK05lCs3HALp3+sy0
rO2md4RbgadteHSSvb0z0w/aUEUJw/4LMIQexxmmVjZLUkJ7
-----END CERTIFICATE-----
