-----BEGIN ENCRYPTED PRIVATE KEY-----
MIIJjjBABgkqhkiG9w0BBQ0wMzAbBgkqhkiG9w0BBQwwDgQIYv/vzxrHFwACAggA
MBQGCCqGSIb3DQMHBAjXf6f09bZTxwSCCUgRuk8AVTcOVfjSDq+CBHliw+6+AipC
FcjcC1kwWDHNBl+nGqk3DoUqxdCVRXWsc5gCLBbiuJyIFApuZwPrxXnPERkzZYnF
hCyuCoQH/YwcngOxr8aiWZnKT+TJ9DfdvhQd2ZdYHqGGvfOtWFSeV/9wvn87ymrG
Lm1qPQHY0EeZgzOGgwmcl6wWLm6/ZpwQXD9JzjydaOJT7m56r80KSboyYQ4eIgMx
ooowbBTLbefO2v9tM6acXwr+71r09/e9HY8H5PqfxwShOvtqvCir7KBSE17EbQp+
kp1bD25JciX8u+ChCh755CGOYBeqlZ+acmjpGkpl136fWJmjTj5iKNjxamAUP9hI
lg3WWTbC6b7kTBUVXJT0keFQnegLwQi/25eVd9W/pH87XkGuFek+E7ZOxzOLWgsg
CZUSd4HhZS044pZI1jVYjLqdBIvbgXajjTXQktzCXQ4u4Comy2HYBG8tE5t3q5DV
hcCGGK8mQAVlGHD+EPPwskaMgQ2clAHNqdOI8w69GSqqtJTbLReX8a2AO9urrTdo
peMsX38m9pilKq9s506HDQnQgk0EPXnyy3AM+nhH0IkpTBgrO3bysBP0H+ICRd8m
X9Z5aPD3+JA/a6jRiI6BdbR5b0weZbdZBCAg6I/Ak4/d/kdet9Dwho7LHdlAQ4pz
eFpipkAqMBHR/BLKdj0JFI8TLtdhAgRShsS+ddfIHbRNdTAf5gFyIFBrCnStbPMI
iwVgzQYLbY0s6/A7J1R+r2p/zKAITt54QyZimpetRbv54WSeoH6J44duqYTE10E7
ZuBB5k8KYiLRqRlTAjT2tNmiUaHG4yW3u2zDzjRBRd7dDpA934ITeIwd3XC7UZ94
urw/x2kK7dIluHi3/uz/Gi67C+9NNes/aJ0x7U5LBdvWBMtkAMbHCVtWu/iqdfwr
5zhf2vFtex2Sow8ZhJ985F8U/5PPCbwSkXZGch0EMGHvO/UXGl+QFTjLBD7hNmvQ
MhWgEbdtbI2kPPkt/pDBHiIr6UFsEhUnR55PjSH4fl6dlDYgToa/Ui3Wq834EKXa
0oFO8gEmUNV348BU7gadABisnn37lIS4DlSbn60+/1jUs7wvqqIxHhs+Qgo9/MMa
b2jln0UmmwrugzcTho7ZGg6IkHxBkmxHpeCU9ntxwFi6rsHgg1/mrgLiVkRFK7sb
LTjnHBvM7unj/Be0HeEaCrN/NWM9hOWymKOxvnjE41kDNpCDrQFwYz6wjXk7fPOO
UlSDpEusRNUR9DegtaP/BEft4PziI0iKk5/afWw16iNMKzJ2kuvWkKf0jpcUqGOH
aIoJXPtseK7pgg66av8shf9S3S17QJF0AZVrPNEPvE5Ui4gmi1F0n0naJuqQZad+
mFh8CyiXaSiaXB5hkHdOBafYLpebmmik6685cR2ptdlMTh4t644Qx8npQuf0u4uu
4Mwkt88v+3a4ylMiazjLb2Ifs1VDw/C8COF6M+u/YaCo7EZQM45stNaSv0eDn/jL
BXiMzVJ1g31X9kAD0QOIqAxQU8eGlXlAY6WBOtnaQsTGc0LaBMEZCZ5qm63m2AWs
EO1RzSCREnw9LT8a5q2I+r0JdrgPIo+lbX2/94GooHVlAemceQL6qcSyjqJ7iouE
oFCefAlIM6lvaiOS10ExM2+fht/3l1Vwf0Bk5nyvD0PBRO1isQTm9l/gux1Xt9qC
9Tpdw/3JSIhE72ptWKf+9pad0r/e3Q8YMtYCLcHWjG9WlvEjp4UOz5NEh5P5S9MS
gYMiXMUJWCxRNKLEsp58zPsVO1BzpPpj7pFLLOzcGSf0bydCjNQ0Ms4HFA1SqdOi
4Hcy5hib24j7GBXby1hm8dnT2NqN0BffjLaZr9DuKVOy3RnrRx4kMG1k5nWLslZf
O2lAL6OzVLVVrsHVBL8Q9uwpJxG1511XDVQef8x+ucvIqR0snxLfspj4teafhrwe
qCZLkUss4GKI5BukF9YtsodQZXgMAbBPUVaqUlmpAyFc4LgQC/HcOb4aqck+yWka
eWUkJJzndF4EnOUKFGl/IzCu19cwicezV/MUvZ9J2/Fwlbn+F3mWeY6xlTC7z1sV
d0Cr/S5yw5yW8487ZFSr+ozIIBZ81UjBuun8IpOYZcj+jnb9UEO77XWwSDbt4t79
0V2pRf9jeFdDyeBWCYIPL8yVycd5prR1uc/3RxNf6FiP3L6aGAYDEhoTHgVvhkUn
ZqbJT0/CSSDWqRVCjJnrCgGKAt6w66ddo+zWn9Cf1FyIOUdS/zRnU1UXlFv+mJ6s
cWgqIjbS32lKa2dx5kfXzz+zcvgNVn+idptWaPn2NIa3CS3HTNDKAQpj86GD3sYO
65RJZmDtksjCAw7jT+1M95xqyXoJduoBNG1gx288JlLnzxjyVrVsicsjy8amqK/s
Ni2aogga4TJxsxgs7Xi99anmI7x0vp2yPN46nNdevo0Ue7NhOfd5kiNSbU/indzd
MyU1cV+xM+DlgqYEYiRQ0iuL/NBN7Qq7xAcVf4A8snGSoOy8hcXBghsEO//4g7yp
psftAgZh5P29u4RKACzrrOkqAbvEGLrF7H4oEb8ppHiTSLgczzqwBTlbxVmBXVZz
tO3x9Amu+gY/grTU3FJl0PuKZmU/AMGwcWuu7uTw1ScCxDR8kfDkQCi1geqMOXCB
KikyufHIhvC4Dz+p3xyEG7LIg3j7waZ4y3pJKmTH5szDM3f9BXwOKKiR245DhC06
BZCBvQnLdX6OTeS1olS5JIbit+agvwYu0iWN6lgYS9aal+y4Fov1jDbO4ii7EPdJ
wxI586P8NMGnISDuiV1qryZ//4/p60kafST92NGYDwx5iUL40NRnvna+sJ1SvOPW
rqF+G7U2GIo/OgjfmvAM432/mBQ5HowhtIEGMCi1nnvmUJWdDstuhMLaqzoVpRdk
W9RX/QsykIWplV7TscZoWV6pIZUlf8W3+R7RXtbXgUqb+73hEVL+fSbRpK9I2z1j
mASkrFgZpVnOVGoHp48k53nSOj59REBKo5mT7Kj/fy68lSTBySpoW2YcLV5Ob7sz
Qi0YU0gWFPbN0tybaHcWv9CLweHzk+akxeq9WkbyrsgBvYc0G5aK4BtU1fJ46bCB
uWcK1wbbsW3BPE9vrf6WkJzWvVqHTCGkIwPmcds+1aVt4E0EKFe+tEDss1CzbdJi
6sM=
-----END ENCRYPTED PRIVATE KEY-----
Certificate:
    Data:
        Version: 3 (0x2)
        Serial Number: 3 (0x3)
    Signature Algorithm: sha256WithRSAEncryption
        Issuer: CN=tdCA, ST=Pontevedra, C=ES/emailAddress=tdca@gradiant.org, O=Gradiant, OU=CA
        Validity
            Not Before: Mar 14 17:06:51 2017 GMT
            Not After : Mar 13 17:06:51 2022 GMT
        Subject: CN=po, ST=Pontevedra, C=ES/emailAddress=po@gradiant.org, O=Gradiant, OU=PO
        Subject Public Key Info:
            Public Key Algorithm: rsaEncryption
                Public-Key: (4096 bit)
                Modulus:
                    00:d7:7d:bc:11:69:10:06:8d:b4:19:20:3b:28:86:
                    50:7e:e1:94:f6:3f:05:f2:b0:ad:48:a0:84:76:b3:
                    28:4a:1c:07:72:78:ac:5c:e6:a0:30:1b:52:f2:08:
                    74:53:73:57:5d:70:da:55:28:72:71:20:72:10:e1:
                    5a:5e:82:b5:15:f2:8b:74:39:f3:b0:75:36:b4:cf:
                    b0:11:2a:9a:07:26:8c:41:5e:97:82:89:91:12:97:
                    ae:c9:49:3a:d2:e9:24:cb:33:00:c7:9e:fa:17:f9:
                    16:57:aa:a9:58:8e:81:65:08:6a:83:24:bf:bc:78:
                    16:4b:f2:6f:8b:0a:84:d1:82:5d:00:11:f8:f6:48:
                    14:d0:57:aa:8e:e3:f3:74:6f:fd:89:38:c8:15:8e:
                    d9:00:5c:84:70:e3:bb:5f:c9:18:ad:69:fa:8c:e1:
                    05:bd:05:9f:7f:8d:a8:b9:8a:1e:68:c1:69:f8:6b:
                    b2:63:07:5a:38:74:5c:db:83:13:dd:c5:ba:8f:42:
                    bd:8f:24:22:32:fd:85:8e:5b:75:be:38:6d:95:9e:
                    52:b6:de:1f:11:d5:bf:20:ef:f4:c2:55:48:8e:89:
                    9c:de:e9:a4:7c:5a:5c:95:43:d6:ca:ef:2f:6a:02:
                    bd:29:96:e6:5c:de:69:e0:ac:0e:65:c6:41:90:14:
                    84:1f:88:a0:52:46:ce:91:47:db:d7:5a:bf:ec:2d:
                    8d:af:3c:44:ff:9f:6b:6a:6c:7d:21:eb:74:b7:ea:
                    43:ce:3b:e2:26:5e:18:00:5a:0a:b6:12:23:b4:d1:
                    eb:ec:7c:02:b4:85:f7:58:ef:c4:0e:16:80:1b:3e:
                    ff:56:f1:4a:45:36:1c:d7:5c:67:68:99:a3:f4:54:
                    3f:48:6b:28:a0:78:66:39:dd:05:df:0f:52:78:58:
                    d4:46:02:8b:e1:60:7c:91:1c:5f:17:88:2d:27:f4:
                    77:7e:22:1e:29:5a:8c:af:6a:62:22:51:27:c6:a7:
                    ce:2a:a0:a9:7f:0a:13:0e:6f:12:44:86:a1:23:d9:
                    4b:dc:fe:3e:95:60:dd:d7:a3:53:56:f9:b7:79:8d:
                    e2:69:c3:2a:e1:9d:23:84:8d:a1:c0:92:fc:bc:36:
                    65:81:bd:3b:75:c3:f2:1e:97:44:67:55:b4:a0:b0:
                    36:2c:3b:90:cc:36:9a:a6:eb:84:1f:0b:5f:cc:7b:
                    2e:2d:7a:dc:e4:b2:c0:3d:ce:7b:b1:4d:97:f6:38:
                    4f:a3:62:75:a2:f3:be:a8:c3:39:f3:a8:49:cc:8a:
                    56:fa:1d:32:17:4d:18:90:bc:4b:38:54:e0:3e:f7:
                    5e:e5:ac:eb:87:39:8c:5d:f3:d1:7a:dc:3a:32:0f:
                    c6:92:15
                Exponent: 65537 (0x10001)
        X509v3 extensions:
            X509v3 Basic Constraints: 
                CA:FALSE
            X509v3 Key Usage: 
                Digital Signature, Non Repudiation, Key Encipherment
            X509v3 Subject Alternative Name: 
                DNS:po
    Signature Algorithm: sha256WithRSAEncryption
         27:9e:1f:ab:27:eb:a8:96:34:32:c8:b7:48:24:d9:fa:f4:97:
         9c:7e:14:6a:30:02:d0:cd:c7:4d:2b:c4:a7:fe:b5:bd:f1:ca:
         f0:5e:b5:67:df:b8:c6:1d:86:26:9a:12:98:64:59:d3:85:6a:
         e5:97:26:2d:1e:60:8c:42:d9:9c:bc:72:82:43:3f:6a:79:a5:
         c3:2a:91:ec:64:e0:5b:b8:4c:0c:90:c8:7d:4e:f4:84:b5:8c:
         5f:29:f8:3a:a6:e0:d3:92:b8:f5:5f:85:f5:ac:7b:1d:03:b3:
         43:e1:9a:33:5d:e1:b2:62:c3:24:7b:44:5d:0e:a4:8d:7b:84:
         a7:92:94:72:c4:9a:e2:9c:45:03:d1:f6:8b:af:85:a8:9c:27:
         08:04:11:fa:48:09:33:d2:9a:bc:5f:57:4d:03:67:30:2c:db:
         3a:37:e6:70:4a:65:6c:cc:31:cc:1a:16:be:c5:40:25:40:5e:
         b2:d5:02:ce:ac:a1:db:d7:24:48:05:a8:9b:18:36:7c:25:a4:
         a1:7f:a8:f1:8f:35:20:d5:bc:ff:17:4b:8b:91:77:a0:01:7b:
         1d:67:e6:11:9c:7e:a9:bd:3e:3d:9a:2f:4c:91:4f:4c:22:c6:
         4d:9e:57:56:f8:6a:5b:b3:e1:c5:d0:6a:18:66:10:69:14:73:
         27:5c:f1:ec
-----BEGIN CERTIFICATE-----
MIIEhjCCA26gAwIBAgIBAzANBgkqhkiG9w0BAQsFADBzMQ0wCwYDVQQDEwR0ZENB
MRMwEQYDVQQIEwpQb250ZXZlZHJhMQswCQYDVQQGEwJFUzEgMB4GCSqGSIb3DQEJ
ARYRdGRjYUBncmFkaWFudC5vcmcxETAPBgNVBAoTCEdyYWRpYW50MQswCQYDVQQL
EwJDQTAeFw0xNzAzMTQxNzA2NTFaFw0yMjAzMTMxNzA2NTFaMG8xCzAJBgNVBAMT
AnBvMRMwEQYDVQQIEwpQb250ZXZlZHJhMQswCQYDVQQGEwJFUzEeMBwGCSqGSIb3
DQEJARYPcG9AZ3JhZGlhbnQub3JnMREwDwYDVQQKEwhHcmFkaWFudDELMAkGA1UE
CxMCUE8wggIiMA0GCSqGSIb3DQEBAQUAA4ICDwAwggIKAoICAQDXfbwRaRAGjbQZ
IDsohlB+4ZT2PwXysK1IoIR2syhKHAdyeKxc5qAwG1LyCHRTc1ddcNpVKHJxIHIQ
4VpegrUV8ot0OfOwdTa0z7ARKpoHJoxBXpeCiZESl67JSTrS6STLMwDHnvoX+RZX
qqlYjoFlCGqDJL+8eBZL8m+LCoTRgl0AEfj2SBTQV6qO4/N0b/2JOMgVjtkAXIRw
47tfyRitafqM4QW9BZ9/jai5ih5owWn4a7JjB1o4dFzbgxPdxbqPQr2PJCIy/YWO
W3W+OG2VnlK23h8R1b8g7/TCVUiOiZze6aR8WlyVQ9bK7y9qAr0pluZc3mngrA5l
xkGQFIQfiKBSRs6RR9vXWr/sLY2vPET/n2tqbH0h63S36kPOO+ImXhgAWgq2EiO0
0evsfAK0hfdY78QOFoAbPv9W8UpFNhzXXGdomaP0VD9IayigeGY53QXfD1J4WNRG
AovhYHyRHF8XiC0n9Hd+Ih4pWoyvamIiUSfGp84qoKl/ChMObxJEhqEj2Uvc/j6V
YN3Xo1NW+bd5jeJpwyrhnSOEjaHAkvy8NmWBvTt1w/Iel0RnVbSgsDYsO5DMNpqm
64QfC1/Mey4tetzkssA9znuxTZf2OE+jYnWi876owznzqEnMilb6HTIXTRiQvEs4
VOA+917lrOuHOYxd89F63DoyD8aSFQIDAQABoykwJzAJBgNVHRMEAjAAMAsGA1Ud
DwQEAwIF4DANBgNVHREEBjAEggJwbzANBgkqhkiG9w0BAQsFAAOCAQEAJ54fqyfr
qJY0Msi3SCTZ+vSXnH4UajAC0M3HTSvEp/61vfHK8F61Z9+4xh2GJpoSmGRZ04Vq
5ZcmLR5gjELZnLxygkM/anmlwyqR7GTgW7hMDJDIfU70hLWMXyn4Oqbg05K49V+F
9ax7HQOzQ+GaM13hsmLDJHtEXQ6kjXuEp5KUcsSa4pxFA9H2i6+FqJwnCAQR+kgJ
M9KavF9XTQNnMCzbOjfmcEplbMwxzBoWvsVAJUBestUCzqyh29ckSAWomxg2fCWk
oX+o8Y81INW8/xdLi5F3oAF7HWfmEZx+qb0+PZovTJFPTCLGTZ5XVvhqW7PhxdBq
GGYQaRRzJ1zx7A==
-----END CERTIFICATE-----
