Certificate:
    Data:
        Version: 3 (0x2)
        Serial Number: 1 (0x1)
    Signature Algorithm: sha256WithRSAEncryption
        Issuer: CN=udCA, ST=Pontevedra, C=ES/emailAddress=udca@gradiant.org, O=Gradiant, OU=CA
        Validity
            Not Before: Feb 23 17:47:50 2017 GMT
            Not After : Feb 22 17:47:50 2022 GMT
        Subject: CN=broker-ud, ST=Pontevedra, C=ES/emailAddress=broker_ud@gradiant.org, O=Gradiant, OU=Broker
        Subject Public Key Info:
            Public Key Algorithm: rsaEncryption
                Public-Key: (4096 bit)
                Modulus:
                    00:d1:49:d0:a1:bf:02:bb:04:7f:7d:48:b9:75:e1:
                    3f:d8:26:20:17:e8:d8:10:dc:04:51:bd:70:6c:96:
                    77:3f:f8:e3:94:0c:c9:7b:4d:37:81:76:7f:36:b2:
                    c7:b6:7c:95:41:bc:ca:08:f2:65:25:f3:24:03:ba:
                    ac:6e:e2:23:29:e8:9b:bd:00:3e:6a:e0:ba:9c:3f:
                    18:c9:4e:60:6b:4f:e0:f4:c6:ed:14:5e:73:2e:a3:
                    dd:b8:09:3f:fe:68:e6:4e:9d:92:b3:b5:e1:8f:8d:
                    14:82:30:11:a6:ba:80:5b:b5:7f:7e:c5:27:63:cd:
                    f2:37:95:7e:10:3e:3e:c1:34:34:83:e9:7c:c6:31:
                    b0:41:1f:86:98:a2:a1:a5:2c:78:b5:3d:05:72:e3:
                    22:3b:2c:14:12:59:b0:1c:6a:a5:05:6f:1d:7b:76:
                    49:11:ca:a5:7f:7b:56:61:c1:a3:76:47:47:fa:5b:
                    ee:8c:c7:b8:28:1b:82:02:eb:2e:c8:49:6c:37:f8:
                    55:74:7d:84:c9:02:8e:39:aa:e3:35:0c:79:eb:c2:
                    93:5c:eb:23:a7:2a:7a:79:90:23:32:c2:8d:e0:02:
                    1d:ee:19:5e:2c:18:aa:18:c0:11:96:68:00:f6:ea:
                    b3:cd:5e:44:58:48:d5:e5:66:cf:e7:af:14:a3:0e:
                    37:3c:11:cc:0f:1b:15:a5:97:64:5c:76:cf:6d:41:
                    c4:df:6a:83:c0:57:83:e0:5b:75:0c:1d:99:e9:96:
                    f5:b6:f1:9a:c6:40:a7:23:30:d1:f2:30:ae:46:b9:
                    42:6f:79:dd:fd:80:29:2c:c4:f1:37:23:42:f8:5a:
                    80:d4:c8:3b:2a:06:76:28:24:35:78:2a:6e:9f:42:
                    6e:51:f8:6e:7d:81:25:93:20:a6:40:3e:5b:d9:63:
                    85:f3:49:a2:7c:24:31:a0:8d:45:8f:d5:87:ae:53:
                    f1:9e:a9:15:67:7c:ee:8c:c6:7b:8e:30:dc:ae:9a:
                    a8:52:1a:24:45:43:9e:3f:ec:3e:9a:62:51:7d:ff:
                    51:38:5c:bc:65:99:4a:33:25:75:11:29:30:31:8a:
                    a4:66:5f:77:c8:8e:f1:f7:cd:dc:81:9a:64:4b:fc:
                    2e:99:5e:77:cd:94:e1:6d:03:dd:98:67:bf:5f:83:
                    83:0c:db:c1:cd:5d:8b:d5:00:b1:e2:71:27:b6:ca:
                    11:53:a5:1e:53:aa:4c:d0:97:80:cf:df:39:28:dc:
                    35:bc:03:44:c6:28:b4:35:0c:70:84:23:61:fd:4f:
                    5a:9c:12:a8:38:a2:9e:e6:1c:19:3f:d5:4d:dc:44:
                    b4:27:4a:28:62:06:f3:18:7a:9e:c9:a4:5b:c2:c5:
                    16:40:3d
                Exponent: 65537 (0x10001)
        X509v3 extensions:
            X509v3 Basic Constraints: 
                CA:FALSE
            X509v3 Key Usage: 
                Digital Signature, Non Repudiation, Key Encipherment
            X509v3 Subject Alternative Name: 
                DNS:broker-ud
    Signature Algorithm: sha256WithRSAEncryption
         da:cf:79:7a:f5:45:cb:49:43:34:2e:a1:f3:7b:f6:e9:26:07:
         15:f3:b1:0d:38:45:c4:06:56:c4:65:77:8d:e9:c5:33:2b:d9:
         cd:48:dc:aa:67:6a:c4:38:dd:0e:90:22:e4:8e:8b:6c:9b:50:
         82:b0:3b:f2:b9:93:bf:38:89:ca:13:8c:6f:7b:09:70:71:a1:
         66:6d:07:0e:4a:bf:0e:2c:ea:dc:b8:97:83:a9:aa:71:a8:26:
         f7:d3:73:87:96:4d:42:29:63:32:3f:5e:e0:95:41:c4:df:da:
         b7:f3:fc:df:63:96:91:b5:89:66:81:bd:3e:45:32:83:e3:25:
         0a:3f:bf:00:03:96:2a:0e:23:18:5e:b3:80:a3:fb:ed:f6:d6:
         af:96:9e:69:29:3e:03:68:25:37:96:60:22:69:96:e2:8c:a7:
         27:f5:31:f4:a4:a0:5a:49:70:06:15:f9:16:7f:72:60:aa:0d:
         54:c2:3e:e7:42:91:3f:05:2c:74:bb:a7:6e:cc:de:83:2c:2a:
         f7:44:2e:84:96:22:10:5f:7a:63:da:18:8c:2c:5d:d3:48:2e:
         e2:ba:c4:46:a0:97:c2:cd:2b:01:73:bc:b4:b0:0a:37:f6:f1:
         e3:0f:ea:b5:1a:2e:62:08:51:4e:37:92:b4:23:3c:17:00:75:
         32:43:f3:30
-----BEGIN CERTIFICATE-----
MIIEoDCCA4igAwIBAgIBATANBgkqhkiG9w0BAQsFADBzMQ0wCwYDVQQDEwR1ZENB
MRMwEQYDVQQIEwpQb250ZXZlZHJhMQswCQYDVQQGEwJFUzEgMB4GCSqGSIb3DQEJ
ARYRdWRjYUBncmFkaWFudC5vcmcxETAPBgNVBAoTCEdyYWRpYW50MQswCQYDVQQL
EwJDQTAeFw0xNzAyMjMxNzQ3NTBaFw0yMjAyMjIxNzQ3NTBaMIGBMRIwEAYDVQQD
Ewlicm9rZXItdWQxEzARBgNVBAgTClBvbnRldmVkcmExCzAJBgNVBAYTAkVTMSUw
IwYJKoZIhvcNAQkBFhZicm9rZXJfdWRAZ3JhZGlhbnQub3JnMREwDwYDVQQKEwhH
cmFkaWFudDEPMA0GA1UECxMGQnJva2VyMIICIjANBgkqhkiG9w0BAQEFAAOCAg8A
MIICCgKCAgEA0UnQob8CuwR/fUi5deE/2CYgF+jYENwEUb1wbJZ3P/jjlAzJe003
gXZ/NrLHtnyVQbzKCPJlJfMkA7qsbuIjKeibvQA+auC6nD8YyU5ga0/g9MbtFF5z
LqPduAk//mjmTp2Ss7Xhj40UgjARprqAW7V/fsUnY83yN5V+ED4+wTQ0g+l8xjGw
QR+GmKKhpSx4tT0FcuMiOywUElmwHGqlBW8de3ZJEcqlf3tWYcGjdkdH+lvujMe4
KBuCAusuyElsN/hVdH2EyQKOOarjNQx568KTXOsjpyp6eZAjMsKN4AId7hleLBiq
GMARlmgA9uqzzV5EWEjV5WbP568Uow43PBHMDxsVpZdkXHbPbUHE32qDwFeD4Ft1
DB2Z6Zb1tvGaxkCnIzDR8jCuRrlCb3nd/YApLMTxNyNC+FqA1Mg7KgZ2KCQ1eCpu
n0JuUfhufYElkyCmQD5b2WOF80mifCQxoI1Fj9WHrlPxnqkVZ3zujMZ7jjDcrpqo
UhokRUOeP+w+mmJRff9ROFy8ZZlKMyV1ESkwMYqkZl93yI7x983cgZpkS/wumV53
zZThbQPdmGe/X4ODDNvBzV2L1QCx4nEntsoRU6UeU6pM0JeAz985KNw1vANExii0
NQxwhCNh/U9anBKoOKKe5hwZP9VN3ES0J0ooYgbzGHqeyaRbwsUWQD0CAwEAAaMw
MC4wCQYDVR0TBAIwADALBgNVHQ8EBAMCBeAwFAYDVR0RBA0wC4IJYnJva2VyLXVk
MA0GCSqGSIb3DQEBCwUAA4IBAQDaz3l69UXLSUM0LqHze/bpJgcV87ENOEXEBlbE
ZXeN6cUzK9nNSNyqZ2rEON0OkCLkjotsm1CCsDvyuZO/OInKE4xvewlwcaFmbQcO
Sr8OLOrcuJeDqapxqCb303OHlk1CKWMyP17glUHE39q38/zfY5aRtYlmgb0+RTKD
4yUKP78AA5YqDiMYXrOAo/vt9tavlp5pKT4DaCU3lmAiaZbijKcn9TH0pKBaSXAG
FfkWf3Jgqg1Uwj7nQpE/BSx0u6duzN6DLCr3RC6EliIQX3pj2hiMLF3TSC7iusRG
oJfCzSsBc7y0sAo39vHjD+q1Gi5iCFFON5K0IzwXAHUyQ/Mw
-----END CERTIFICATE-----
