Certificate:
    Data:
        Version: 3 (0x2)
        Serial Number: 1 (0x1)
    Signature Algorithm: sha256WithRSAEncryption
        Issuer: CN=untrustedCA, ST=Pontevedra, C=ES/emailAddress=ca@untrusted.com, O=Untrusted, OU=CA
        Validity
            Not Before: Oct 21 10:52:07 2016 GMT
            Not After : Oct 20 10:52:07 2021 GMT
        Subject: CN=untrusted_client, ST=Pontevedra, C=ES/emailAddress=client@untrusted.com, O=Untrusted, OU=Clients
        Subject Public Key Info:
            Public Key Algorithm: rsaEncryption
                Public-Key: (4096 bit)
                Modulus:
                    00:cb:31:74:74:31:ff:3b:14:03:7f:e6:74:06:6b:
                    81:a5:53:3e:d4:15:c7:fa:29:ef:e7:a5:ff:aa:75:
                    9c:37:60:37:4f:74:98:50:de:ee:e3:e7:40:25:fc:
                    65:9f:43:45:92:22:2a:df:ff:38:34:b0:86:43:fe:
                    88:5e:e7:d1:2a:c2:9a:29:47:3d:12:14:59:9a:19:
                    22:12:fc:a2:5f:27:cb:49:0d:45:c6:04:7f:13:90:
                    3e:79:0d:1d:f9:48:2f:bc:c3:6c:b6:21:d9:95:4b:
                    f6:0c:60:64:39:f2:af:23:d4:45:bb:8e:74:34:74:
                    c8:84:a2:2a:65:82:28:2d:98:c4:46:da:c4:10:94:
                    40:ef:23:d8:ad:50:96:ab:74:69:43:92:21:08:28:
                    22:37:f5:3c:5f:d2:ad:01:70:83:80:c2:50:a8:d8:
                    cc:9c:f2:5c:fc:49:86:12:79:1c:5f:9a:8d:ce:d3:
                    72:29:e3:47:55:2b:55:8e:d6:f8:bd:a5:56:c7:2b:
                    98:1c:2d:ed:66:e9:96:e2:ce:98:e2:f6:7b:48:c1:
                    10:a8:1d:d6:26:71:84:48:e6:73:4c:0c:f5:85:67:
                    87:b7:4c:3c:2d:5f:c9:2e:d7:c4:e4:2e:a7:96:ad:
                    2e:9e:22:7a:23:89:f0:48:30:68:25:31:27:bb:f2:
                    bc:93:11:4d:f4:05:c0:3d:1c:9b:f2:b0:be:bc:53:
                    0e:c7:7b:40:6b:ba:29:88:47:e5:76:67:8d:76:8b:
                    31:2a:3d:1a:c1:90:3d:58:22:75:44:d9:37:98:f9:
                    c2:86:14:74:da:1f:22:30:00:7b:76:83:cf:4d:35:
                    a0:69:e3:27:63:99:56:bf:07:19:b0:0a:5b:ac:f7:
                    f4:38:5e:f5:f0:b0:84:42:ad:1e:78:b6:10:56:cc:
                    f4:e7:6c:02:af:40:3a:4d:fc:a3:c2:9c:49:11:5c:
                    0f:88:da:e1:c3:53:41:ed:6b:33:ff:13:6a:a0:6f:
                    e8:2f:8b:6e:29:ed:f9:49:20:f2:98:59:8a:30:48:
                    1a:c5:63:92:3b:42:b0:5f:e3:64:cc:13:4a:1c:4d:
                    62:6d:e7:c3:fd:15:1c:c3:06:8e:51:46:e3:0b:46:
                    dc:15:81:f0:95:a4:5f:ab:2f:40:df:be:02:16:06:
                    42:32:03:03:07:38:4e:7f:f4:94:9f:2f:16:4c:ae:
                    1f:d6:12:e6:ea:de:18:92:f1:97:a5:ff:78:f2:5d:
                    20:cf:00:e7:9d:c5:8f:fb:b5:3f:ff:95:58:3c:36:
                    a5:8d:4f:6b:55:87:5b:a7:d3:40:64:1a:2e:37:2a:
                    7c:93:2f:9c:37:8f:4c:61:2d:7f:d2:3f:d4:5f:58:
                    26:fb:fd
                Exponent: 65537 (0x10001)
        X509v3 extensions:
            X509v3 Basic Constraints: 
                CA:FALSE
            X509v3 Key Usage: 
                Digital Signature, Non Repudiation, Key Encipherment
    Signature Algorithm: sha256WithRSAEncryption
         d8:4f:16:cb:16:47:ad:f9:ae:46:8b:68:dd:95:5f:78:dc:ff:
         b8:34:41:36:4a:10:01:44:37:b3:2a:b5:c2:22:4f:11:51:6c:
         3e:1d:17:be:83:38:00:d2:4b:5b:99:a0:ab:08:03:62:02:b6:
         5d:e0:38:ec:d9:8d:8d:7a:0e:1e:ff:4c:4b:eb:b1:3b:5b:20:
         f7:92:b8:f1:a8:19:c9:a1:ca:89:66:f7:af:57:ac:9f:63:61:
         a5:27:cf:38:52:8b:bd:fd:0f:3f:74:2a:fe:5c:a4:13:a3:00:
         2a:04:03:2d:af:13:0b:31:67:3b:7c:cb:48:d5:7f:7a:db:29:
         66:df:95:2e:d3:b3:39:80:52:7c:5b:b3:fe:61:40:bc:b3:59:
         e7:c6:30:cd:66:0a:9d:26:2b:34:ae:13:24:34:7b:e3:56:54:
         99:30:25:63:6a:50:31:69:a1:e7:95:62:b3:fa:ab:19:34:9c:
         d3:27:f3:a1:7f:d9:40:51:a8:76:70:06:25:15:88:dd:d2:f2:
         9e:f5:17:7b:27:97:e3:10:3d:45:17:82:0f:c9:de:fd:b0:72:
         a8:8a:b3:f9:a4:d8:f3:4c:20:5c:c5:07:bd:e2:b5:d1:7a:0b:
         d6:51:b3:26:8c:14:f5:ea:3f:ec:87:ba:e0:d0:d0:d8:74:14:
         5d:f4:a9:a4
-----BEGIN CERTIFICATE-----
MIIEmDCCA4CgAwIBAgIBATANBgkqhkiG9w0BAQsFADB6MRQwEgYDVQQDEwt1bnRy
dXN0ZWRDQTETMBEGA1UECBMKUG9udGV2ZWRyYTELMAkGA1UEBhMCRVMxHzAdBgkq
hkiG9w0BCQEWEGNhQHVudHJ1c3RlZC5jb20xEjAQBgNVBAoTCVVudHJ1c3RlZDEL
MAkGA1UECxMCQ0EwHhcNMTYxMDIxMTA1MjA3WhcNMjExMDIwMTA1MjA3WjCBiDEZ
MBcGA1UEAxQQdW50cnVzdGVkX2NsaWVudDETMBEGA1UECBMKUG9udGV2ZWRyYTEL
MAkGA1UEBhMCRVMxIzAhBgkqhkiG9w0BCQEWFGNsaWVudEB1bnRydXN0ZWQuY29t
MRIwEAYDVQQKEwlVbnRydXN0ZWQxEDAOBgNVBAsTB0NsaWVudHMwggIiMA0GCSqG
SIb3DQEBAQUAA4ICDwAwggIKAoICAQDLMXR0Mf87FAN/5nQGa4GlUz7UFcf6Ke/n
pf+qdZw3YDdPdJhQ3u7j50Al/GWfQ0WSIirf/zg0sIZD/ohe59EqwpopRz0SFFma
GSIS/KJfJ8tJDUXGBH8TkD55DR35SC+8w2y2IdmVS/YMYGQ58q8j1EW7jnQ0dMiE
oiplgigtmMRG2sQQlEDvI9itUJardGlDkiEIKCI39Txf0q0BcIOAwlCo2Myc8lz8
SYYSeRxfmo3O03Ip40dVK1WO1vi9pVbHK5gcLe1m6Zbizpji9ntIwRCoHdYmcYRI
5nNMDPWFZ4e3TDwtX8ku18TkLqeWrS6eInojifBIMGglMSe78ryTEU30BcA9HJvy
sL68Uw7He0BruimIR+V2Z412izEqPRrBkD1YInVE2TeY+cKGFHTaHyIwAHt2g89N
NaBp4ydjmVa/BxmwClus9/Q4XvXwsIRCrR54thBWzPTnbAKvQDpN/KPCnEkRXA+I
2uHDU0HtazP/E2qgb+gvi24p7flJIPKYWYowSBrFY5I7QrBf42TME0ocTWJt58P9
FRzDBo5RRuMLRtwVgfCVpF+rL0DfvgIWBkIyAwMHOE5/9JSfLxZMrh/WEubq3hiS
8Zel/3jyXSDPAOedxY/7tT//lVg8NqWNT2tVh1un00BkGi43KnyTL5w3j0xhLX/S
P9RfWCb7/QIDAQABoxowGDAJBgNVHRMEAjAAMAsGA1UdDwQEAwIF4DANBgkqhkiG
9w0BAQsFAAOCAQEA2E8WyxZHrfmuRoto3ZVfeNz/uDRBNkoQAUQ3syq1wiJPEVFs
Ph0XvoM4ANJLW5mgqwgDYgK2XeA47NmNjXoOHv9MS+uxO1sg95K48agZyaHKiWb3
r1esn2NhpSfPOFKLvf0PP3Qq/lykE6MAKgQDLa8TCzFnO3zLSNV/etspZt+VLtOz
OYBSfFuz/mFAvLNZ58YwzWYKnSYrNK4TJDR741ZUmTAlY2pQMWmh55Vis/qrGTSc
0yfzoX/ZQFGodnAGJRWI3dLynvUXeyeX4xA9RReCD8ne/bByqIqz+aTY80wgXMUH
veK10XoL1lGzJowU9eo/7Ie64NDQ2HQUXfSppA==
-----END CERTIFICATE-----
