Certificate:
    Data:
        Version: 3 (0x2)
        Serial Number: 2 (0x2)
    Signature Algorithm: sha256WithRSAEncryption
        Issuer: CN=witdomCA, ST=Pontevedra, C=ES/emailAddress=ca@witdom.eu, O=Witdom, OU=CA
        Validity
            Not Before: Oct 20 10:57:20 2016 GMT
            Not After : Oct 19 10:57:20 2021 GMT
        Subject: CN=client1, ST=Pontevedra, C=ES/emailAddress=client1@witdom.eu, O=Witdom, OU=Clients
        Subject Public Key Info:
            Public Key Algorithm: rsaEncryption
                Public-Key: (4096 bit)
                Modulus:
                    00:bf:cd:29:62:52:15:c7:61:e7:9d:3b:9d:23:16:
                    d2:01:98:7c:48:35:07:d3:7b:a4:86:1a:83:59:c7:
                    50:ca:58:68:52:a3:3a:8e:9f:32:2f:de:6b:06:aa:
                    53:c8:21:69:67:a1:24:69:99:82:b7:b3:eb:ab:af:
                    5c:a5:ef:db:ce:9b:2c:50:05:36:8e:d5:bd:fd:fd:
                    0c:43:66:6d:82:4e:d6:37:fe:80:2f:63:61:f5:a4:
                    d6:0a:fe:19:cc:87:9a:a0:8e:c1:08:b3:7c:0d:d3:
                    2a:18:13:97:4f:86:b9:11:86:fc:5c:54:5a:d7:6e:
                    e8:2e:43:63:32:f0:6d:4f:ce:0f:4a:a1:e1:87:b5:
                    fd:d2:38:b9:b6:b2:da:49:24:fe:c7:10:b5:63:25:
                    9e:f6:93:9f:1c:a1:41:22:59:97:de:0a:a9:d4:e1:
                    ce:7f:b9:30:a0:ae:a7:ce:e1:f6:bd:b2:51:95:ab:
                    bc:c6:ea:9b:e1:04:82:3e:31:1d:4b:db:32:9c:13:
                    83:90:94:6c:b7:18:1f:af:91:4b:91:c8:2d:f4:a9:
                    4e:71:f5:f6:6e:f7:ee:ba:96:ef:16:22:39:6f:09:
                    a9:b1:4d:0f:8b:22:e9:96:6f:e3:17:31:04:ce:e1:
                    b9:4a:41:2d:9f:01:b9:ca:81:75:9f:04:cd:15:7a:
                    9d:3c:78:4d:5f:50:1b:b0:23:fb:37:a2:d5:c0:3c:
                    f5:d9:a0:d6:59:26:95:0c:cb:7b:3f:3a:59:45:ea:
                    fc:be:a7:e9:68:e4:98:c9:40:91:89:da:11:52:bd:
                    f1:c0:c7:fe:d1:a5:9e:a8:ae:be:ae:c5:d9:de:62:
                    5f:d6:2b:a4:51:9e:89:cd:40:1f:53:28:5d:20:2e:
                    b9:b1:8a:c4:d9:4c:48:42:84:af:02:c0:a2:bb:fe:
                    55:d8:c3:f3:28:ca:bc:97:4f:47:d6:93:cf:5a:f5:
                    0e:11:45:a6:13:d4:c7:fe:6d:df:3a:14:e5:0d:76:
                    14:67:60:fc:bb:2f:b9:38:97:0a:83:73:69:01:9b:
                    47:17:a7:40:98:70:23:08:60:56:25:64:30:fe:f6:
                    0a:ca:84:cc:d5:e9:cb:2b:34:7a:ea:3f:df:4b:5b:
                    15:15:fb:86:83:a4:31:2b:14:b4:76:75:33:50:d8:
                    43:47:85:48:bc:82:e1:94:76:21:7d:5b:60:32:6a:
                    5e:24:ab:60:f3:37:05:c4:cd:00:e3:dc:04:16:ab:
                    ee:2b:81:ef:a5:9f:e3:6a:f1:5a:bc:9e:79:99:24:
                    37:ba:f0:39:5e:f4:05:00:af:0a:02:64:2f:75:c2:
                    d3:44:f0:18:a9:66:83:db:33:e4:df:38:4e:23:43:
                    31:49:bf
                Exponent: 65537 (0x10001)
        X509v3 extensions:
            X509v3 Basic Constraints: 
                CA:FALSE
            X509v3 Key Usage: 
                Digital Signature, Non Repudiation, Key Encipherment
    Signature Algorithm: sha256WithRSAEncryption
         78:02:66:f7:6d:33:9b:ed:62:27:57:db:1f:03:b9:9a:ba:f2:
         67:f9:76:76:58:00:07:53:d2:77:f4:1d:fd:00:ed:4a:d5:2b:
         c2:93:e3:9a:7a:4f:de:6b:6f:fc:2a:2c:cd:69:24:2c:18:93:
         90:6b:ed:ba:c2:bf:b5:8e:34:84:89:a7:76:a4:2c:f2:ca:f8:
         01:23:45:89:2c:62:ee:9c:3c:13:a6:d8:fa:0c:48:9f:26:60:
         16:66:08:76:90:de:09:84:3e:da:4a:4f:37:de:48:bb:d3:57:
         9f:7f:a7:70:25:b6:6f:2d:2d:68:1c:25:2d:3c:b9:96:60:62:
         04:17:32:0f:e5:ea:4c:5f:5d:65:30:4c:8a:ad:53:81:e2:12:
         08:c9:b2:9b:08:2d:c2:95:b2:40:ea:a9:fb:da:ab:68:d1:46:
         1c:83:75:3f:3f:73:66:af:f7:06:8e:27:ae:fa:65:cf:d3:20:
         d6:48:10:ec:a3:ef:94:14:a8:27:8a:3b:d0:50:8e:99:65:2f:
         67:de:2b:b9:71:88:71:3a:b4:9c:4d:b5:db:61:d1:6f:1c:2c:
         0a:82:1e:0a:01:8e:b6:9f:25:ea:89:a2:01:19:f7:09:0e:ed:
         18:8b:6b:50:d1:f6:65:ea:15:d1:04:d4:4b:ea:64:b5:5f:f2:
         6c:05:59:5c:2e:4e:31:a8:6e:57:e7:65:6b:3d:0e:dd:ae:d3:
         bb:e5:ca:75:37:32:dd:a4:0a:fe:81:18:b9:e3:42:da:50:58:
         8b:aa:c0:42:5d:3a:4a:1a:5b:1f:2e:27:6a:44:97:90:65:12:
         f0:07:01:2f:d3:77:90:40:20:7d:0c:f5:09:6e:c0:9d:59:82:
         78:8a:70:d6:c9:db:e6:22:99:6d:83:4e:eb:41:4a:b5:4c:be:
         ad:dd:48:81:34:5c:a4:83:34:61:b2:7b:34:83:df:d9:76:66:
         87:89:b4:17:fd:fe:81:c9:4c:ad:ba:43:7b:4c:b5:d3:90:84:
         ff:f2:5e:0b:22:1d:97:11:07:3e:36:da:c3:75:9c:4f:c2:12:
         a9:b3:97:24:45:77:35:d7:37:fa:af:da:23:56:05:5c:22:e3:
         6a:ae:aa:b4:4a:91:79:9d:c2:77:aa:22:60:5b:ed:5e:e6:e5:
         13:0e:e5:f1:e5:04:f5:5c:7e:d3:40:ec:5f:20:c8:02:bb:d0:
         58:30:e8:7c:0c:ad:c2:c6:17:38:f2:ec:3d:c3:7b:b1:e5:51:
         a7:6e:8f:e6:6d:c7:48:b5:92:17:9a:70:41:3f:2d:33:05:fe:
         87:ef:a4:87:5d:f4:40:b8:77:44:2b:a9:d8:4d:89:42:9a:6d:
         41:d2:6f:e1:f4:61:9a:5e
-----BEGIN CERTIFICATE-----
MIIFfjCCA2agAwIBAgIBAjANBgkqhkiG9w0BAQsFADBwMREwDwYDVQQDEwh3aXRk
b21DQTETMBEGA1UECBMKUG9udGV2ZWRyYTELMAkGA1UEBhMCRVMxGzAZBgkqhkiG
9w0BCQEWDGNhQHdpdGRvbS5ldTEPMA0GA1UEChMGV2l0ZG9tMQswCQYDVQQLEwJD
QTAeFw0xNjEwMjAxMDU3MjBaFw0yMTEwMTkxMDU3MjBaMHkxEDAOBgNVBAMTB2Ns
aWVudDExEzARBgNVBAgTClBvbnRldmVkcmExCzAJBgNVBAYTAkVTMSAwHgYJKoZI
hvcNAQkBFhFjbGllbnQxQHdpdGRvbS5ldTEPMA0GA1UEChMGV2l0ZG9tMRAwDgYD
VQQLEwdDbGllbnRzMIICIjANBgkqhkiG9w0BAQEFAAOCAg8AMIICCgKCAgEAv80p
YlIVx2HnnTudIxbSAZh8SDUH03ukhhqDWcdQylhoUqM6jp8yL95rBqpTyCFpZ6Ek
aZmCt7Prq69cpe/bzpssUAU2jtW9/f0MQ2Ztgk7WN/6AL2Nh9aTWCv4ZzIeaoI7B
CLN8DdMqGBOXT4a5EYb8XFRa127oLkNjMvBtT84PSqHhh7X90ji5trLaSST+xxC1
YyWe9pOfHKFBIlmX3gqp1OHOf7kwoK6nzuH2vbJRlau8xuqb4QSCPjEdS9synBOD
kJRstxgfr5FLkcgt9KlOcfX2bvfuupbvFiI5bwmpsU0PiyLplm/jFzEEzuG5SkEt
nwG5yoF1nwTNFXqdPHhNX1AbsCP7N6LVwDz12aDWWSaVDMt7PzpZRer8vqfpaOSY
yUCRidoRUr3xwMf+0aWeqK6+rsXZ3mJf1iukUZ6JzUAfUyhdIC65sYrE2UxIQoSv
AsCiu/5V2MPzKMq8l09H1pPPWvUOEUWmE9TH/m3fOhTlDXYUZ2D8uy+5OJcKg3Np
AZtHF6dAmHAjCGBWJWQw/vYKyoTM1enLKzR66j/fS1sVFfuGg6QxKxS0dnUzUNhD
R4VIvILhlHYhfVtgMmpeJKtg8zcFxM0A49wEFqvuK4HvpZ/javFavJ55mSQ3uvA5
XvQFAK8KAmQvdcLTRPAYqWaD2zPk3zhOI0MxSb8CAwEAAaMaMBgwCQYDVR0TBAIw
ADALBgNVHQ8EBAMCBeAwDQYJKoZIhvcNAQELBQADggIBAHgCZvdtM5vtYidX2x8D
uZq68mf5dnZYAAdT0nf0Hf0A7UrVK8KT45p6T95rb/wqLM1pJCwYk5Br7brCv7WO
NISJp3akLPLK+AEjRYksYu6cPBOm2PoMSJ8mYBZmCHaQ3gmEPtpKTzfeSLvTV59/
p3Altm8tLWgcJS08uZZgYgQXMg/l6kxfXWUwTIqtU4HiEgjJspsILcKVskDqqfva
q2jRRhyDdT8/c2av9waOJ676Zc/TINZIEOyj75QUqCeKO9BQjpllL2feK7lxiHE6
tJxNtdth0W8cLAqCHgoBjrafJeqJogEZ9wkO7RiLa1DR9mXqFdEE1EvqZLVf8mwF
WVwuTjGoblfnZWs9Dt2u07vlynU3Mt2kCv6BGLnjQtpQWIuqwEJdOkoaWx8uJ2pE
l5BlEvAHAS/Td5BAIH0M9QluwJ1ZgniKcNbJ2+YimW2DTutBSrVMvq3dSIE0XKSD
NGGyezSD39l2ZoeJtBf9/oHJTK26Q3tMtdOQhP/yXgsiHZcRBz422sN1nE/CEqmz
lyRFdzXXN/qv2iNWBVwi42quqrRKkXmdwneqImBb7V7m5RMO5fHlBPVcftNA7F8g
yAK70Fgw6HwMrcLGFzjy7D3De7HlUaduj+Ztx0i1kheacEE/LTMF/ofvpIdd9EC4
d0QrqdhNiUKabUHSb+H0YZpe
-----END CERTIFICATE-----
