-----BEGIN RSA PRIVATE KEY-----
MIIJKQIBAAKCAgEAvjLafqo2gIhJGX9AN3B4CZBWmimj4AFNBOK58RlT2qrES3bF
CuPblJl2+uUximgAmXnH2WLTPTnBGvw4IOiqS9b4OvXQ8UqRdqhlggGW8YVFviSy
+T04vAh83PDSK++kcTDTzC45Y7mxcvDh7teMRUPokQaa5XnlHe7H9hvujFx1tSDi
SF9jun0J8nqOD3uvJJ732Jkm6+EpT/wKASNL5t/frv91e0YdQhklFH+Z7RZWcIta
O74V4c/ptPyUekT1tPYzTziJquZP0qdNH2VuJQcu4ZlVVAQQ3xthAZC/u+fDH6LM
Il4MYQ8ct5uJ+mfS+XYEGaiRVvvmbu1GdQmg8oJ8sTzxisJbVYvtzB4ULhkE6DI/
qMIBzavB1jviQENPGNC3nrKbKu8cqTSyh9y5SqylgUsoAn6pxB+lSksgr2pdAHH1
N07BNocKzlfF5gkHCxg6bnszduxqBAE4IQKho/XKxgLGE6P7kDIBEmubnI/KGror
A81k2s+5t6SgQLmGv8ESjGpL8PxtCbmHWRcUakjvvrzfV9f2zlf53URr929Lwnlt
eVy661DJ9mJfIPdV40Fk7a882bsYjVAqIZ36LJBJc+3ZmNg6Zc5oMA3Qd0dDNqeA
4V9N1Ef3KlVo1ha7CHOrLENQUJ1ensZgLflIGpg7RXNSyUAuox18lncIeMUCAwEA
AQKCAgEAtTyeCU7GqomzJlGkbm+EYpCghTwihMSYkIw/ZKeeyOIqNEKTlkHzrdDi
mEcngtyBnb12mwXZhiDvinhGP82U4LmSRhSQqixFGk1ylIRRQgmdoIc159vXoQ1x
ddMgYm9zQcymNYzicM20cnNoxv+sESCZjwA9P2d81J4A+to44JUGMLeKCC6lSEH3
5Y+0qLpR9VJpl4KwnNosVKQ1IEpy/Cfd7NJOL05reN2fAL5qfYnoikuvivghv9Av
wZ9hGHV3sJ1d3SJhxHC8JV34Vm9/mlcS7DQBJBLPxNlBAY3dtf8tZorpe+IkZ6RP
2AGlY+/lEILNe2muPLXCKXd9yO6I5of0LvZ0CH11uOZg1Ygp03dFFILYT9Z/QPF/
+VS6Cn9kOiO0T55ck7KYdHisZ3bzlGOaxvBIH4utEYeQz0GbExKg+9qnS57V0I10
nXWiA6u+yPXYFUIzu4FsO1km4hL9cP7arKlgdiI8eivcY818V08i3jJY/AbNbJaL
mDDCv4VwChHXjTRt7Bpu0r2NUliWXc2Fnr8Zlw04K624AyQytQvmut3JqwJqkCBr
fRQtaZqmyNcAAVrVwB/tDPgpFAKHsVNVJO7V4hJN2e/I1gcOqMk5C6zxU6qDRT4A
F6HuDUJ0Bn7Jp70Wi9csVKYHDSyyDKHT3pf/gxo0pN7CZFc/OyECggEBAOp2u2pt
Bxb0P04rXLx4ViJleYNhsuFWQ4m3eYe1RiaBZxtCZT9OqZtCn3zJ8q7gSz7prOBK
/RIiBYtrGJt1h3OSLZ8C3NZdRUkVSHRfRyO/yAVqfIzRZqY49DBmBxC2oT9bODWZ
6gCTFEA0+LPFq5uk1tC5kDjUr2gHUSgst3aaoC45MrbgZQxGXJHx8UofLGvXONml
SmLcpAbZbuhcI4xkZfVaQp4GtkI9f4rFUzCFN5yqx7RMF/VfclVaiGtnAtZ5VC3C
IjMxE+3IbcU5+LonMAbaSXu0OXO23fv8fwSmpDaT3GlCQ7SFbS7l7P5l+DqOllO7
5GzhWzpCb6ODNY0CggEBAM+rQR7fPtCeqQSULrsDllYo7exGpIO8z/qG+HnegrFW
EJ38wGTbJlzEZKU7f+brrEj0Jf+N901yTdUGNxIv0Psy52d6R0KdCEd8OlL0U1qX
cC4bBSCTUo9ZgcFjy5UaRaIbw+mgJLEPgInbJ5YyJgzxGHyUiUduoIo1YS0QS0IQ
NCUGZ/ZqSTQRv57h64/oWP1OhLqH/A52PsXo++JxbZBvHcLSUFhSCK52LI4jdfGc
VhMaRsvQX0yZWBZ6KtlRIqu2ohn2XJN/7eZmpcoYfUO2Hdil1ieYmwZW9f8blAFc
gegHbtkVCTeatUgdjwD+mlRkPimSJobZokW8yPs+thkCggEBAJ3QbTWlTTBWFoY3
CaSSGufsBW45RH4H4k3AAT0m9qDUWOIwPpXuDJtErLUB+SdcMUmXX5VY5B5gZ/r/
iwCYiyNvMOXmt15SSWB3wt0RhIC7hZafplXiXIVlsHcjNX46by6F57+saaUZWngd
L4lRc8C/oxe6zyhxf981jZrM/nAGg+qY9VnCkEFC2uwhPZf2g5/SraFRcFA60u0J
TW15FzRYH4iVyGE1g1fyrPZq+yOdh2EcUm85CKdQJ1TsKwafv3k9ETv7f6mVTySt
07T84D3sQpdaNjvdgw4v+Bq0SYqH3+Achi8TOx8279axTGOvnvVLJEQYJBhlV1JP
hXU5y8ECggEAGLTiMX8T5RQLPb03dg5uM1/5NnQNHJM5FzA5nZ4oZFq97V3lsdoU
zVKcOsBCbkG5pJBPeQD13CPuOJrdsG856LjcqQX2NmmiU4bnFXl19UAxG3sheAeu
+dkHQ+/Qh7OxdyDghQoFc39Jpp0JL6hVuJJyfFfboUD7HpZNMmRO39Q3r/P8KGfq
v6Qg7REpylw1QiW2Ss7k4P+WZktatE0UYOunWcdVwbw4xjDPCjYT0SPtZaZpp9Pp
kp5nyXzNXj915YH79STHTNEah5/Mt6eEN6sSD/Vi7iEMyItOBwTL7gGIfwdrW65S
A2iHisXhfpfL2qB2eNGnfcGkubFFJAcI+QKCAQArLrcOIGyt4JR1rWibpNaLbX/A
sc3m1ziD7D/DLdAkIrMgsnwr7L2e5dqVEnf/ElBNp+Qi95dMrH/G8RVNWcTuMuPx
Hx8TqESeB99irUjvsnLOujOUBXGJm8Ix25tXiVxkAb+uo4PHP2mnz1+etI5LFfKW
eCik14u1RcEvafFpWwTanlIPAU9YTmG1iKNy5ma3HiuAB7h/4PhtGgGgV62+NCLj
P9YyeFO4IRFt9qllXrH2f6jAgXtqq5m9CpJtYck60P9y/Ln7lrDVYzgIGpa0SQ0e
3at2aLSqJR6LQpQAdrRvLkJHcxea47RBDD4dGe9ag6dInRhhcAPQjBEGM8RN
-----END RSA PRIVATE KEY-----
Certificate:
    Data:
        Version: 3 (0x2)
        Serial Number: 2 (0x2)
    Signature Algorithm: sha256WithRSAEncryption
        Issuer: CN=tdCA, ST=Pontevedra, C=ES/emailAddress=tdca@gradiant.org, O=Gradiant, OU=CA
        Validity
            Not Before: Feb 23 17:43:05 2017 GMT
            Not After : Feb 22 17:43:05 2022 GMT
        Subject: CN=client-td, ST=Pontevedra, C=ES/emailAddress=client_td@gradiant.org, O=Gradiant, OU=Clients
        Subject Public Key Info:
            Public Key Algorithm: rsaEncryption
                Public-Key: (4096 bit)
                Modulus:
                    00:be:32:da:7e:aa:36:80:88:49:19:7f:40:37:70:
                    78:09:90:56:9a:29:a3:e0:01:4d:04:e2:b9:f1:19:
                    53:da:aa:c4:4b:76:c5:0a:e3:db:94:99:76:fa:e5:
                    31:8a:68:00:99:79:c7:d9:62:d3:3d:39:c1:1a:fc:
                    38:20:e8:aa:4b:d6:f8:3a:f5:d0:f1:4a:91:76:a8:
                    65:82:01:96:f1:85:45:be:24:b2:f9:3d:38:bc:08:
                    7c:dc:f0:d2:2b:ef:a4:71:30:d3:cc:2e:39:63:b9:
                    b1:72:f0:e1:ee:d7:8c:45:43:e8:91:06:9a:e5:79:
                    e5:1d:ee:c7:f6:1b:ee:8c:5c:75:b5:20:e2:48:5f:
                    63:ba:7d:09:f2:7a:8e:0f:7b:af:24:9e:f7:d8:99:
                    26:eb:e1:29:4f:fc:0a:01:23:4b:e6:df:df:ae:ff:
                    75:7b:46:1d:42:19:25:14:7f:99:ed:16:56:70:8b:
                    5a:3b:be:15:e1:cf:e9:b4:fc:94:7a:44:f5:b4:f6:
                    33:4f:38:89:aa:e6:4f:d2:a7:4d:1f:65:6e:25:07:
                    2e:e1:99:55:54:04:10:df:1b:61:01:90:bf:bb:e7:
                    c3:1f:a2:cc:22:5e:0c:61:0f:1c:b7:9b:89:fa:67:
                    d2:f9:76:04:19:a8:91:56:fb:e6:6e:ed:46:75:09:
                    a0:f2:82:7c:b1:3c:f1:8a:c2:5b:55:8b:ed:cc:1e:
                    14:2e:19:04:e8:32:3f:a8:c2:01:cd:ab:c1:d6:3b:
                    e2:40:43:4f:18:d0:b7:9e:b2:9b:2a:ef:1c:a9:34:
                    b2:87:dc:b9:4a:ac:a5:81:4b:28:02:7e:a9:c4:1f:
                    a5:4a:4b:20:af:6a:5d:00:71:f5:37:4e:c1:36:87:
                    0a:ce:57:c5:e6:09:07:0b:18:3a:6e:7b:33:76:ec:
                    6a:04:01:38:21:02:a1:a3:f5:ca:c6:02:c6:13:a3:
                    fb:90:32:01:12:6b:9b:9c:8f:ca:1a:ba:2b:03:cd:
                    64:da:cf:b9:b7:a4:a0:40:b9:86:bf:c1:12:8c:6a:
                    4b:f0:fc:6d:09:b9:87:59:17:14:6a:48:ef:be:bc:
                    df:57:d7:f6:ce:57:f9:dd:44:6b:f7:6f:4b:c2:79:
                    6d:79:5c:ba:eb:50:c9:f6:62:5f:20:f7:55:e3:41:
                    64:ed:af:3c:d9:bb:18:8d:50:2a:21:9d:fa:2c:90:
                    49:73:ed:d9:98:d8:3a:65:ce:68:30:0d:d0:77:47:
                    43:36:a7:80:e1:5f:4d:d4:47:f7:2a:55:68:d6:16:
                    bb:08:73:ab:2c:43:50:50:9d:5e:9e:c6:60:2d:f9:
                    48:1a:98:3b:45:73:52:c9:40:2e:a3:1d:7c:96:77:
                    08:78:c5
                Exponent: 65537 (0x10001)
        X509v3 extensions:
            X509v3 Basic Constraints: 
                CA:FALSE
            X509v3 Key Usage: 
                Digital Signature, Non Repudiation, Key Encipherment
    Signature Algorithm: sha256WithRSAEncryption
         4e:39:42:17:40:e1:9f:2a:95:17:71:6d:38:5c:f3:74:12:f2:
         75:cd:56:70:29:60:ad:75:c3:40:df:49:2c:be:b6:ab:75:e2:
         ea:69:7a:f0:09:4e:29:1e:18:a9:7a:96:8b:6f:ad:94:38:4d:
         7e:3d:31:43:75:c5:bf:6b:0c:f2:30:8a:be:6d:c8:2f:31:42:
         aa:97:01:19:f6:ed:8a:7e:cd:37:07:6f:cf:98:24:dd:19:27:
         b5:7b:20:79:08:1e:7c:09:9f:36:e3:cb:93:0a:f7:8f:4d:be:
         08:a1:2a:b4:a3:b1:b2:58:03:93:8d:cc:5d:8e:08:70:d7:e3:
         2b:90:ba:e5:7a:fa:7e:92:e3:c4:e9:02:3e:be:89:90:8b:c1:
         66:0e:3b:ee:b5:62:7d:fe:86:62:d6:18:cd:e3:07:a8:9d:88:
         c8:e4:41:63:70:45:1a:05:0b:ea:c3:43:71:6d:bb:25:c2:ec:
         16:46:28:5c:36:13:b9:3b:df:0b:9f:74:e5:a6:3e:da:1d:e7:
         bb:b1:15:7b:c2:d3:77:c7:b0:8b:1b:7b:c1:2b:1f:d6:69:92:
         98:47:07:77:cd:21:36:fb:66:e3:01:e6:4f:bc:f6:58:56:82:
         b7:7f:e5:a9:b4:3e:af:0e:78:8b:74:3f:e7:61:98:9e:b6:96:
         de:75:af:26
-----BEGIN CERTIFICATE-----
MIIEizCCA3OgAwIBAgIBAjANBgkqhkiG9w0BAQsFADBzMQ0wCwYDVQQDEwR0ZENB
MRMwEQYDVQQIEwpQb250ZXZlZHJhMQswCQYDVQQGEwJFUzEgMB4GCSqGSIb3DQEJ
ARYRdGRjYUBncmFkaWFudC5vcmcxETAPBgNVBAoTCEdyYWRpYW50MQswCQYDVQQL
EwJDQTAeFw0xNzAyMjMxNzQzMDVaFw0yMjAyMjIxNzQzMDVaMIGCMRIwEAYDVQQD
EwljbGllbnQtdGQxEzARBgNVBAgTClBvbnRldmVkcmExCzAJBgNVBAYTAkVTMSUw
IwYJKoZIhvcNAQkBFhZjbGllbnRfdGRAZ3JhZGlhbnQub3JnMREwDwYDVQQKEwhH
cmFkaWFudDEQMA4GA1UECxMHQ2xpZW50czCCAiIwDQYJKoZIhvcNAQEBBQADggIP
ADCCAgoCggIBAL4y2n6qNoCISRl/QDdweAmQVpopo+ABTQTiufEZU9qqxEt2xQrj
25SZdvrlMYpoAJl5x9li0z05wRr8OCDoqkvW+Dr10PFKkXaoZYIBlvGFRb4ksvk9
OLwIfNzw0ivvpHEw08wuOWO5sXLw4e7XjEVD6JEGmuV55R3ux/Yb7oxcdbUg4khf
Y7p9CfJ6jg97rySe99iZJuvhKU/8CgEjS+bf367/dXtGHUIZJRR/me0WVnCLWju+
FeHP6bT8lHpE9bT2M084iarmT9KnTR9lbiUHLuGZVVQEEN8bYQGQv7vnwx+izCJe
DGEPHLebifpn0vl2BBmokVb75m7tRnUJoPKCfLE88YrCW1WL7cweFC4ZBOgyP6jC
Ac2rwdY74kBDTxjQt56ymyrvHKk0sofcuUqspYFLKAJ+qcQfpUpLIK9qXQBx9TdO
wTaHCs5XxeYJBwsYOm57M3bsagQBOCECoaP1ysYCxhOj+5AyARJrm5yPyhq6KwPN
ZNrPubekoEC5hr/BEoxqS/D8bQm5h1kXFGpI776831fX9s5X+d1Ea/dvS8J5bXlc
uutQyfZiXyD3VeNBZO2vPNm7GI1QKiGd+iyQSXPt2ZjYOmXOaDAN0HdHQzangOFf
TdRH9ypVaNYWuwhzqyxDUFCdXp7GYC35SBqYO0VzUslALqMdfJZ3CHjFAgMBAAGj
GjAYMAkGA1UdEwQCMAAwCwYDVR0PBAQDAgXgMA0GCSqGSIb3DQEBCwUAA4IBAQBO
OUIXQOGfKpUXcW04XPN0EvJ1zVZwKWCtdcNA30ksvrardeLqaXrwCU4pHhipepaL
b62UOE1+PTFDdcW/awzyMIq+bcgvMUKqlwEZ9u2Kfs03B2/PmCTdGSe1eyB5CB58
CZ8248uTCvePTb4IoSq0o7GyWAOTjcxdjghw1+MrkLrlevp+kuPE6QI+vomQi8Fm
DjvutWJ9/oZi1hjN4weonYjI5EFjcEUaBQvqw0NxbbslwuwWRihcNhO5O98Ln3Tl
pj7aHee7sRV7wtN3x7CLG3vBKx/WaZKYRwd3zSE2+2bjAeZPvPZYVoK3f+WptD6v
DniLdD/nYZietpbeda8m
-----END CERTIFICATE-----
