-----BEGIN RSA PRIVATE KEY-----
MIIJJwIBAAKCAgEApm9atLt0dlwKC3dDZ6RJh4x9dz0sMQp7/Kr4iWGyatYGTH3k
vkCh7tObqLyngzv0FduVNYreMBkY3k33k15Wyio6z5TZBf3DffY0JqMlxeiDsIDL
Z/MsvMfbdrwVHd+ol/s/J8+aX5z7eJgADw/ySKz+tHsbq54ZngLfd7+yoDGRj2b/
VX6T8qyKz+oMcEB4A1RMI2XqFDd+KcVTgYsjYoodBFQUde1HrZrhVrZxhczYxtva
ADRkGFpJ4fhCRWD5J1suxOGGdcdD0aB6P5EAxPcZPUcHed7SyasKqPWmPnnCDvrV
IWAsF/MzrLmoiBNvrb77hl8IgQmgTpYVFq/szXoPGXGbJerFpoHScyQ3Bg566D67
AoD2Lftt1dVHP7+VodvipV7R5q4CFoWPsodyqdV4bNDT3py0TFTGZ3wzVDOltt/d
Ck/tNwqpIW8f003g97+y7Kq82WlI/qSPlERrvYGUS2V+tLVVPn1N+9I7uy05+2AS
8Kdq8cL9QjmKn62ZeCgGamYmmxBQoxqiPD6PMA19czJRkC8UWupKdM6Ly4dkQTEI
Y9CToTtjylbNYo3/BFD5DBt486FRckx1W71GlA4OFVIbl8iP9yXqCDttkKdzCYrs
qLfe3h5K2dj0Y0hqtfRRf5al9RO1/OnHYoI25s5LOprTIeU3GoPboGu0R9MCAwEA
AQKCAgAkKIEOTsNoi2prP0fXlmubFTyU0SduqBZzuDkyr5TxfPn1WEx/wM7tce+Z
YxMJgdbvgLsT3M2UqX8rnMiyrYYxeac5Pd9AW/dCwGBoHH2yV2d0yyZluQD5KnpV
e1sjGFoqWp1H6uRg7Vv8wRkSLKa4f0z+rNhAGqL6HympfG40O1CiVQAX9N3zlOS7
ct+s63SnVIMOFbAbIEs6i/IubKoNWHAhZprjW998qe9WxWA4b16RJWZhMQCmAceX
XjYXmI/IqxioEU8C+32SZ0jn0nrWT9Cd7XaEVZJ52b0BJA0v+YfddUUkcR5jPaT2
W4dvuLlEh/9hG/hfAFZhfF2shh/t0k+x8z4jZ5eaE9MIjqN/IlDwhM1X8xjv5mAJ
WiaEeQYIdtv/DP/bKOaNALVjr/d7O0Z9cTtErBKGsmgtv0Db7eqcDVIfrXDxZr8l
EnYXHFWr4kh3tZsAKoeg/ZG3QvrtsUxE644hUc/hDh1zFwk3lTBKrM9MFZ5+y4qf
rsNWWpELarg97jztH7QARs+ltiZm+mHoFL8/UXyG6zRAcmEvXb68+yrpXtvx8cKz
xtvfS4oZSIB01gNwYmzaWJ9CAHvyvo6F/QTHeN2r0ASTRnU+nNWZZ45CNAGQpan9
d2MY+eyVbhfljXqvS2gtFnNo4jYwelSyYEI8YZNXnyZ6OYg7YQKCAQEA2PiuaYek
2jSUsuG4aZVosuEyA7Bq3S/P49AW2jHbfvkTSjj2u/eupeNlBX6TgpcNc6lDosCO
WSzhVrLKec8vp+Ng5/sfYp2yzGmq7aFX1T234pXXuZM9EWnElPpzL/DSwz2hBUHx
lvCPjFNkvy43SiFzwMdertwAnCEgXPTqbq5U1u2s40mQuoNsPEA5sYxf24/p+9bY
Va+AdOKs9w6BVWOQ8IhYSNraek4Qp8tC98le03wyJEvrxMItOGwXeCKeHefrEyOL
v1lpSqD6lvdK+6KnKjINnDWv2eBP5PKnQZzdliz1pbfSolHRjazUSNtcojBwNh+u
Y2T1DPHuHWTOuwKCAQEAxF+FMZKTVljervOr2PHYg/t47Fz2o29vHR6GKRQxl8UO
pJHOaC9nzyDaStbANCkMIenCKMbKyq5078jirJ2Mvo+h9AgW4MkL7RyxV/mnQ1Ss
Nlw6VthPHACI0/Kutt9gnd4D9Klq+0ZRQ+4EtUNog5++ApTgdJMItHsyoU3gJd15
MZoKh3Nv4AxJ6bYu5K3/wZKVpKxXiOsDYtQ05bx57wHTfpru+2G9DOCMdCXdbkTO
i7uKs3VEdO+zcwOS4i3dFKA0Ld/D3tTf0LTEOrGotDBbhlA0SxiuaC9dOt++4pBv
2wIhodBPSJYJgpJ1Yea6mefbvrK4ci7m4pNeFk/1yQKCAQBORVfV5gMIXJOP/HGk
VSvR6/846XmDlW3vhu/XgsjmA0B8NBR+NpmgamnVE5ZvM8K8iMFHgyNW9CPOPO1i
B+XvMM2SojruPmlz6GKrGtsup/cgHGIYJg+PqpIqFDddggjmOeNOnD1k8B84xhTA
CxITAgJZ9xInDmKB8ElWf1va1bTxXAhUbgNx5Vs0WQ73B+bEtCP6n8SnFIrIn8U5
0tfBUAvHWchPb/QEzwifH2pnLROyQ0lrYqAI+OuLQSMuSX601ycsXlRZkQ20yGHd
+BPqtwCK7keOpKdtd8galZbUypv9QvbS839e4xkvfLuQFOJT+BlizQcCADeOlfAK
VoVlAoIBAAlzV2OlXDXhnQXqcDDGotbnOVCWwL/o0v4hw+8iK6jUMPo2kiptbZ+I
Qzkq0KEyAIV5TIDN4GCUuMf5cP9Brc5V90NZSFCVHF/S664CM8yHvKn5Ek2vp07/
r5YTrdjbMzklwCb8KEvjfHG6eLuIfPUosOpK4+p4UQjujOc6ajkoSXbbpPoT0iSE
MuJuhB85SH+2YEFGkgfi14zgDZOo2G1qNxV2u12ZvJFsFRZZ5Cg0Y4RSCEDOufau
uoIkf+MmtecSNrCmfjSxJfxTVsZEWowhb6YtIfcjPvGApgn5TqR0sw1lMt0ou0gR
AHAqQD/v7LcPc4Hf9AR6wV3SHcsRGhECggEAAKoKedd/FGh40UXzGvT9RDSmIqhp
z+bvX9mOKZjDfjGzhqCfHEO2OADL7ufM+MpsJEwtYvjMaS9/7sfm5q4qJrCISHM/
RohtNoC0y+ho7Mq2aLGXLphloItNaKQU4gUqrq1qnZCQVw1nabumVJ1gU30eaz4i
1ZkDvWB/Aa7H/1B8By36IsMZ0cqovnoVXaFQpDJnkmoqlkudIL8iNcm23YuHI52F
GlAc3d3E+0VwRkPhGPueVM4yWnO+hwLHNAjTu+/fuSre9Ltto5LD6pFJ5tN8Pvm4
EbW3DGvo8lXp/MvWaBPwHlJTmzCjRJNHsjDX17BofaOjBHZpEuXR1LMLKw==
-----END RSA PRIVATE KEY-----
Certificate:
    Data:
        Version: 3 (0x2)
        Serial Number: 2 (0x2)
    Signature Algorithm: sha256WithRSAEncryption
        Issuer: CN=udCA, ST=Pontevedra, C=ES/emailAddress=udca@gradiant.org, O=Gradiant, OU=CA
        Validity
            Not Before: Feb 23 17:49:30 2017 GMT
            Not After : Feb 22 17:49:30 2022 GMT
        Subject: CN=client-ud, ST=Pontevedra, C=ES/emailAddress=client_ud@gradiant.org, O=Gradiant, OU=Clients
        Subject Public Key Info:
            Public Key Algorithm: rsaEncryption
                Public-Key: (4096 bit)
                Modulus:
                    00:a6:6f:5a:b4:bb:74:76:5c:0a:0b:77:43:67:a4:
                    49:87:8c:7d:77:3d:2c:31:0a:7b:fc:aa:f8:89:61:
                    b2:6a:d6:06:4c:7d:e4:be:40:a1:ee:d3:9b:a8:bc:
                    a7:83:3b:f4:15:db:95:35:8a:de:30:19:18:de:4d:
                    f7:93:5e:56:ca:2a:3a:cf:94:d9:05:fd:c3:7d:f6:
                    34:26:a3:25:c5:e8:83:b0:80:cb:67:f3:2c:bc:c7:
                    db:76:bc:15:1d:df:a8:97:fb:3f:27:cf:9a:5f:9c:
                    fb:78:98:00:0f:0f:f2:48:ac:fe:b4:7b:1b:ab:9e:
                    19:9e:02:df:77:bf:b2:a0:31:91:8f:66:ff:55:7e:
                    93:f2:ac:8a:cf:ea:0c:70:40:78:03:54:4c:23:65:
                    ea:14:37:7e:29:c5:53:81:8b:23:62:8a:1d:04:54:
                    14:75:ed:47:ad:9a:e1:56:b6:71:85:cc:d8:c6:db:
                    da:00:34:64:18:5a:49:e1:f8:42:45:60:f9:27:5b:
                    2e:c4:e1:86:75:c7:43:d1:a0:7a:3f:91:00:c4:f7:
                    19:3d:47:07:79:de:d2:c9:ab:0a:a8:f5:a6:3e:79:
                    c2:0e:fa:d5:21:60:2c:17:f3:33:ac:b9:a8:88:13:
                    6f:ad:be:fb:86:5f:08:81:09:a0:4e:96:15:16:af:
                    ec:cd:7a:0f:19:71:9b:25:ea:c5:a6:81:d2:73:24:
                    37:06:0e:7a:e8:3e:bb:02:80:f6:2d:fb:6d:d5:d5:
                    47:3f:bf:95:a1:db:e2:a5:5e:d1:e6:ae:02:16:85:
                    8f:b2:87:72:a9:d5:78:6c:d0:d3:de:9c:b4:4c:54:
                    c6:67:7c:33:54:33:a5:b6:df:dd:0a:4f:ed:37:0a:
                    a9:21:6f:1f:d3:4d:e0:f7:bf:b2:ec:aa:bc:d9:69:
                    48:fe:a4:8f:94:44:6b:bd:81:94:4b:65:7e:b4:b5:
                    55:3e:7d:4d:fb:d2:3b:bb:2d:39:fb:60:12:f0:a7:
                    6a:f1:c2:fd:42:39:8a:9f:ad:99:78:28:06:6a:66:
                    26:9b:10:50:a3:1a:a2:3c:3e:8f:30:0d:7d:73:32:
                    51:90:2f:14:5a:ea:4a:74:ce:8b:cb:87:64:41:31:
                    08:63:d0:93:a1:3b:63:ca:56:cd:62:8d:ff:04:50:
                    f9:0c:1b:78:f3:a1:51:72:4c:75:5b:bd:46:94:0e:
                    0e:15:52:1b:97:c8:8f:f7:25:ea:08:3b:6d:90:a7:
                    73:09:8a:ec:a8:b7:de:de:1e:4a:d9:d8:f4:63:48:
                    6a:b5:f4:51:7f:96:a5:f5:13:b5:fc:e9:c7:62:82:
                    36:e6:ce:4b:3a:9a:d3:21:e5:37:1a:83:db:a0:6b:
                    b4:47:d3
                Exponent: 65537 (0x10001)
        X509v3 extensions:
            X509v3 Basic Constraints: 
                CA:FALSE
            X509v3 Key Usage: 
                Digital Signature, Non Repudiation, Key Encipherment
    Signature Algorithm: sha256WithRSAEncryption
         2a:4f:b5:dc:d1:c3:ec:65:19:f5:fe:05:45:5d:a5:91:dc:5b:
         a8:59:0e:ee:8d:95:8d:2b:c0:c2:fb:f5:35:a4:89:b1:e5:00:
         4c:cb:4d:5b:b3:c1:64:c6:3f:11:23:3b:8a:04:e9:67:cc:2f:
         2f:8e:d2:b2:a4:45:09:4d:da:63:71:4b:29:91:94:a3:b5:66:
         f1:19:c7:3b:77:d8:0e:08:c4:ab:3e:a9:48:53:85:c4:53:a6:
         41:32:69:0a:0f:a4:4b:4c:10:ef:bc:a6:65:4d:53:39:07:e6:
         37:ef:3d:ec:65:23:41:b2:87:7c:a2:bc:9e:9d:27:4c:b9:86:
         84:d2:1b:e3:be:66:ee:4b:9b:83:59:72:5d:9c:a6:0c:bd:f6:
         91:66:2b:d4:b8:0f:57:9b:e7:78:eb:88:7c:b2:90:55:65:5e:
         94:b5:63:96:1e:f7:e6:55:1d:26:75:5f:d7:ac:8d:89:f5:75:
         91:8f:b8:a7:c2:04:1f:ab:22:78:42:55:cb:41:84:3f:1c:95:
         c6:87:10:32:b1:12:97:22:e2:cc:15:77:f8:f9:42:bd:c5:01:
         fd:2e:ae:a0:ea:21:44:34:1e:0a:50:48:9d:39:be:41:fb:a7:
         01:44:87:84:a9:b7:fb:f5:46:4d:2e:fd:2c:57:fd:a6:a8:f0:
         cb:07:37:90
-----BEGIN CERTIFICATE-----
MIIEizCCA3OgAwIBAgIBAjANBgkqhkiG9w0BAQsFADBzMQ0wCwYDVQQDEwR1ZENB
MRMwEQYDVQQIEwpQb250ZXZlZHJhMQswCQYDVQQGEwJFUzEgMB4GCSqGSIb3DQEJ
ARYRdWRjYUBncmFkaWFudC5vcmcxETAPBgNVBAoTCEdyYWRpYW50MQswCQYDVQQL
EwJDQTAeFw0xNzAyMjMxNzQ5MzBaFw0yMjAyMjIxNzQ5MzBaMIGCMRIwEAYDVQQD
EwljbGllbnQtdWQxEzARBgNVBAgTClBvbnRldmVkcmExCzAJBgNVBAYTAkVTMSUw
IwYJKoZIhvcNAQkBFhZjbGllbnRfdWRAZ3JhZGlhbnQub3JnMREwDwYDVQQKEwhH
cmFkaWFudDEQMA4GA1UECxMHQ2xpZW50czCCAiIwDQYJKoZIhvcNAQEBBQADggIP
ADCCAgoCggIBAKZvWrS7dHZcCgt3Q2ekSYeMfXc9LDEKe/yq+IlhsmrWBkx95L5A
oe7Tm6i8p4M79BXblTWK3jAZGN5N95NeVsoqOs+U2QX9w332NCajJcXog7CAy2fz
LLzH23a8FR3fqJf7PyfPml+c+3iYAA8P8kis/rR7G6ueGZ4C33e/sqAxkY9m/1V+
k/Ksis/qDHBAeANUTCNl6hQ3finFU4GLI2KKHQRUFHXtR62a4Va2cYXM2Mbb2gA0
ZBhaSeH4QkVg+SdbLsThhnXHQ9Ggej+RAMT3GT1HB3ne0smrCqj1pj55wg761SFg
LBfzM6y5qIgTb62++4ZfCIEJoE6WFRav7M16DxlxmyXqxaaB0nMkNwYOeug+uwKA
9i37bdXVRz+/laHb4qVe0eauAhaFj7KHcqnVeGzQ096ctExUxmd8M1Qzpbbf3QpP
7TcKqSFvH9NN4Pe/suyqvNlpSP6kj5REa72BlEtlfrS1VT59TfvSO7stOftgEvCn
avHC/UI5ip+tmXgoBmpmJpsQUKMaojw+jzANfXMyUZAvFFrqSnTOi8uHZEExCGPQ
k6E7Y8pWzWKN/wRQ+QwbePOhUXJMdVu9RpQODhVSG5fIj/cl6gg7bZCncwmK7Ki3
3t4eStnY9GNIarX0UX+WpfUTtfzpx2KCNubOSzqa0yHlNxqD26BrtEfTAgMBAAGj
GjAYMAkGA1UdEwQCMAAwCwYDVR0PBAQDAgXgMA0GCSqGSIb3DQEBCwUAA4IBAQAq
T7Xc0cPsZRn1/gVFXaWR3FuoWQ7ujZWNK8DC+/U1pImx5QBMy01bs8Fkxj8RIzuK
BOlnzC8vjtKypEUJTdpjcUspkZSjtWbxGcc7d9gOCMSrPqlIU4XEU6ZBMmkKD6RL
TBDvvKZlTVM5B+Y37z3sZSNBsod8oryenSdMuYaE0hvjvmbuS5uDWXJdnKYMvfaR
ZivUuA9Xm+d464h8spBVZV6UtWOWHvfmVR0mdV/XrI2J9XWRj7inwgQfqyJ4QlXL
QYQ/HJXGhxAysRKXIuLMFXf4+UK9xQH9Lq6g6iFENB4KUEidOb5B+6cBRIeEqbf7
9UZNLv0sV/2mqPDLBzeQ
-----END CERTIFICATE-----
