Certificate:
    Data:
        Version: 3 (0x2)
        Serial Number: 6 (0x6)
    Signature Algorithm: sha256WithRSAEncryption
        Issuer: CN=tdCA, ST=Pontevedra, C=ES/emailAddress=tdca@gradiant.org, O=Gradiant, OU=CA
        Validity
            Not Before: Dec 13 14:59:29 2017 GMT
            Not After : Dec 12 14:59:29 2022 GMT
        Subject: CN=ssp-td, ST=Pontevedra, C=ES/emailAddress=ssp_td@witdom.eu, O=Witdom, OU=SSP
        Subject Public Key Info:
            Public Key Algorithm: rsaEncryption
                Public-Key: (4096 bit)
                Modulus:
                    00:b1:31:78:18:5f:aa:39:c8:1e:6e:64:56:db:dc:
                    65:ee:64:76:a0:31:b6:f3:a0:5a:f1:6a:68:e4:11:
                    06:fa:83:e1:03:0b:21:3f:e5:71:e9:c3:96:4d:7f:
                    ff:dc:1e:c9:63:b3:94:e1:78:ee:9b:16:34:be:a4:
                    fa:c6:f7:b5:34:94:36:d2:eb:70:4f:b2:74:cd:51:
                    df:9c:c9:74:14:8a:44:75:8e:de:85:e1:b0:d6:33:
                    73:d4:cc:99:6d:c7:22:48:b1:9c:57:63:9c:87:16:
                    ca:0b:3f:5d:3e:de:1d:f2:f7:75:6a:26:a7:76:99:
                    6a:d4:4d:15:f2:03:83:ac:c0:0c:eb:a1:98:0d:af:
                    bb:96:46:23:0e:42:97:e2:08:f3:29:6e:5a:3e:59:
                    98:b3:a2:a7:60:e9:4f:ab:c4:75:7b:b2:62:bb:0e:
                    35:9f:cb:11:5e:ef:e5:4b:c3:80:70:89:ba:e9:d5:
                    a6:41:26:1c:4b:97:ce:0b:ff:3f:ee:19:2c:41:02:
                    eb:fe:e4:3e:1f:1c:4c:31:be:06:c0:34:c9:7e:ee:
                    74:4e:8c:6f:9e:19:29:54:a6:24:5f:86:50:7c:96:
                    4c:c7:90:24:6b:39:5d:66:12:f8:fb:c7:cb:44:f4:
                    d3:2f:87:d4:52:6c:d8:e1:36:73:6a:53:61:77:9b:
                    bf:16:92:5f:54:3a:05:a4:90:86:7e:db:14:0f:80:
                    b4:2f:a1:0c:06:a5:58:76:dc:40:0e:b4:3e:e0:41:
                    76:7f:b6:57:62:dc:c9:f5:2a:28:d0:51:c2:9e:fa:
                    91:ef:c4:28:a6:6a:a2:9d:db:e8:1f:23:9f:5c:d1:
                    1d:8a:2b:67:f4:e5:fc:10:a5:ae:43:77:f7:e2:40:
                    5d:47:a6:84:10:6a:fa:be:15:65:78:6b:5f:25:18:
                    f8:53:b7:c9:83:40:98:68:53:d7:49:47:f6:b8:e2:
                    4c:d9:f3:d8:ad:bd:45:2d:25:8a:91:95:ea:90:29:
                    09:38:9e:a7:38:4e:1b:34:72:d1:db:37:b5:89:43:
                    17:a6:72:c9:81:22:2e:6a:7b:76:d6:40:e6:05:f0:
                    e0:cf:0c:e3:eb:fe:78:b7:b8:fb:ba:fe:c7:88:2a:
                    ac:65:85:1d:91:13:65:0f:8d:c9:7c:a3:05:f1:a9:
                    ff:2c:75:82:71:4b:fb:b4:79:60:0d:d6:b4:39:47:
                    90:d3:97:b9:fc:1b:0d:56:ee:00:65:c2:d3:e2:79:
                    88:b6:a1:78:60:5f:24:58:57:e9:cb:87:02:e5:64:
                    96:4e:be:78:5a:5d:30:7d:b7:8c:8c:e3:e1:fe:e4:
                    c1:d1:6e:4f:35:42:bf:04:eb:48:63:09:7b:3e:55:
                    59:59:19
                Exponent: 65537 (0x10001)
        X509v3 extensions:
            X509v3 Basic Constraints: 
                CA:FALSE
            X509v3 Key Usage: 
                Digital Signature, Non Repudiation, Key Encipherment
            X509v3 Subject Alternative Name: 
                DNS:ssp-td
    Signature Algorithm: sha256WithRSAEncryption
         18:50:d9:96:85:66:a2:55:32:a8:ec:a6:6d:49:ec:fc:8b:50:
         35:92:f7:fe:a4:3c:f6:bb:55:9d:2a:f6:fb:30:aa:a6:f5:2d:
         ac:b1:5f:b1:82:bf:05:8a:08:f8:3c:aa:c3:06:14:6f:dd:e1:
         29:bc:b1:58:7e:5c:8f:10:7a:36:88:e8:3c:ba:d8:ac:30:34:
         36:71:12:de:4b:79:2d:43:88:b2:37:f4:4f:76:f1:df:10:00:
         dc:2c:6f:b9:59:dc:0e:e0:4b:a3:3e:3b:8a:34:35:fe:33:d3:
         27:4b:80:2d:32:7e:ab:d6:27:67:be:55:ca:35:21:b9:08:de:
         88:9f:9d:b2:33:f7:28:6b:7d:8a:28:88:13:4c:67:91:0b:7c:
         78:b6:2c:17:87:c0:34:87:a2:f8:79:84:c9:5f:96:43:06:10:
         ca:13:2b:ed:27:dc:38:7e:92:8c:ce:be:b0:1e:f0:eb:67:cb:
         17:a4:e0:21:35:51:62:5d:37:2f:67:92:c7:ca:a8:38:17:51:
         3a:69:88:75:35:d2:46:9b:9e:52:21:48:55:b0:82:0f:82:bf:
         1d:32:64:75:ff:4d:58:ba:2c:84:7f:43:6f:e4:e0:62:90:75:
         76:44:36:45:eb:c5:01:48:12:87:5e:fd:09:e4:cf:4a:92:a1:
         4f:da:d4:bc
-----BEGIN CERTIFICATE-----
MIIEjjCCA3agAwIBAgIBBjANBgkqhkiG9w0BAQsFADBzMQ0wCwYDVQQDEwR0ZENB
MRMwEQYDVQQIEwpQb250ZXZlZHJhMQswCQYDVQQGEwJFUzEgMB4GCSqGSIb3DQEJ
ARYRdGRjYUBncmFkaWFudC5vcmcxETAPBgNVBAoTCEdyYWRpYW50MQswCQYDVQQL
EwJDQTAeFw0xNzEyMTMxNDU5MjlaFw0yMjEyMTIxNDU5MjlaMHMxDzANBgNVBAMT
BnNzcC10ZDETMBEGA1UECBMKUG9udGV2ZWRyYTELMAkGA1UEBhMCRVMxHzAdBgkq
hkiG9w0BCQEWEHNzcF90ZEB3aXRkb20uZXUxDzANBgNVBAoTBldpdGRvbTEMMAoG
A1UECxMDU1NQMIICIjANBgkqhkiG9w0BAQEFAAOCAg8AMIICCgKCAgEAsTF4GF+q
OcgebmRW29xl7mR2oDG286Ba8Wpo5BEG+oPhAwshP+Vx6cOWTX//3B7JY7OU4Xju
mxY0vqT6xve1NJQ20utwT7J0zVHfnMl0FIpEdY7eheGw1jNz1MyZbcciSLGcV2Oc
hxbKCz9dPt4d8vd1aiandplq1E0V8gODrMAM66GYDa+7lkYjDkKX4gjzKW5aPlmY
s6KnYOlPq8R1e7Jiuw41n8sRXu/lS8OAcIm66dWmQSYcS5fOC/8/7hksQQLr/uQ+
HxxMMb4GwDTJfu50ToxvnhkpVKYkX4ZQfJZMx5AkazldZhL4+8fLRPTTL4fUUmzY
4TZzalNhd5u/FpJfVDoFpJCGftsUD4C0L6EMBqVYdtxADrQ+4EF2f7ZXYtzJ9Soo
0FHCnvqR78QopmqindvoHyOfXNEdiitn9OX8EKWuQ3f34kBdR6aEEGr6vhVleGtf
JRj4U7fJg0CYaFPXSUf2uOJM2fPYrb1FLSWKkZXqkCkJOJ6nOE4bNHLR2ze1iUMX
pnLJgSIuant21kDmBfDgzwzj6/54t7j7uv7HiCqsZYUdkRNlD43JfKMF8an/LHWC
cUv7tHlgDda0OUeQ05e5/BsNVu4AZcLT4nmItqF4YF8kWFfpy4cC5WSWTr54Wl0w
fbeMjOPh/uTB0W5PNUK/BOtIYwl7PlVZWRkCAwEAAaMtMCswCQYDVR0TBAIwADAL
BgNVHQ8EBAMCBeAwEQYDVR0RBAowCIIGc3NwLXRkMA0GCSqGSIb3DQEBCwUAA4IB
AQAYUNmWhWaiVTKo7KZtSez8i1A1kvf+pDz2u1WdKvb7MKqm9S2ssV+xgr8Figj4
PKrDBhRv3eEpvLFYflyPEHo2iOg8utisMDQ2cRLeS3ktQ4iyN/RPdvHfEADcLG+5
WdwO4EujPjuKNDX+M9MnS4AtMn6r1idnvlXKNSG5CN6In52yM/coa32KKIgTTGeR
C3x4tiwXh8A0h6L4eYTJX5ZDBhDKEyvtJ9w4fpKMzr6wHvDrZ8sXpOAhNVFiXTcv
Z5LHyqg4F1E6aYh1NdJGm55SIUhVsIIPgr8dMmR1/01YuiyEf0Nv5OBikHV2RDZF
68UBSBKHXv0J5M9KkqFP2tS8
-----END CERTIFICATE-----
