Certificate:
    Data:
        Version: 3 (0x2)
        Serial Number: 7 (0x7)
    Signature Algorithm: sha256WithRSAEncryption
        Issuer: CN=tdCA, ST=Pontevedra, C=ES/emailAddress=tdca@gradiant.org, O=Gradiant, OU=CA
        Validity
            Not Before: Dec 13 15:01:46 2017 GMT
            Not After : Dec 12 15:01:46 2022 GMT
        Subject: CN=annot-transformer, ST=Pontevedra, C=ES/emailAddress=ssp_td@witdom.eu, O=Witdom, OU=Transformer
        Subject Public Key Info:
            Public Key Algorithm: rsaEncryption
                Public-Key: (4096 bit)
                Modulus:
                    00:fb:9a:00:5d:f0:b6:a9:00:d3:dc:f5:6e:5e:c3:
                    7c:ef:87:90:28:69:d5:99:74:fc:d1:9c:83:75:ee:
                    c0:1f:07:b5:89:a0:26:1e:35:4d:1e:8d:94:a4:2f:
                    74:26:11:33:8c:16:ef:4a:fb:2f:bd:eb:4b:06:7f:
                    3a:4b:58:16:15:73:6f:4f:3e:2d:af:a3:61:5c:e0:
                    b4:cd:54:94:d1:a9:e2:34:61:f7:d6:70:4d:a5:3c:
                    00:61:be:c7:65:2d:27:79:97:91:c8:d1:a1:a1:5e:
                    ac:c9:e0:02:7a:6f:b7:64:2b:c7:90:dd:11:b3:86:
                    94:e8:5a:e9:72:14:07:3e:d3:ed:41:f5:7d:b6:b0:
                    46:0a:94:55:44:c8:e6:76:a7:8c:4b:49:d1:d7:07:
                    2e:bd:2c:18:86:c0:09:f3:9a:4c:87:d0:53:25:92:
                    ab:7d:67:93:42:1a:99:fa:cf:cf:c1:b5:cb:76:3a:
                    be:bd:ed:7d:77:0d:96:6a:27:bf:ab:a9:ef:10:b8:
                    0a:4f:5c:89:2e:73:c0:50:ac:a2:ac:53:29:f8:39:
                    2e:ff:ca:42:99:07:87:59:75:0c:ab:c7:c9:ba:be:
                    39:4a:0e:21:be:32:60:5e:a6:77:30:c7:ae:8c:5f:
                    c0:dd:cc:b3:08:f3:00:f1:48:26:08:a7:d1:ac:f8:
                    82:51:75:de:ba:78:a8:02:ac:ca:aa:68:0b:24:65:
                    66:3b:78:fb:9d:fa:70:ae:33:f5:5f:26:39:c8:0f:
                    33:cd:61:f4:b1:e9:5b:6b:01:f9:f9:f1:a9:36:09:
                    b9:53:a0:35:d5:f8:a1:26:27:d7:cf:aa:e7:12:7e:
                    77:1d:b1:5b:cc:82:d8:27:62:8b:40:e1:ee:b7:32:
                    07:e5:80:db:6a:aa:51:bd:d9:7c:80:8f:dc:ef:be:
                    2c:a1:61:7b:26:aa:8c:55:03:bd:d9:58:25:48:f9:
                    ba:1f:97:23:e0:ac:75:fb:84:39:f0:90:a6:26:a1:
                    74:84:b5:71:2d:a9:78:1c:0e:f3:1d:aa:03:3b:80:
                    00:ec:9e:42:e7:49:04:86:3c:b3:e5:d8:18:ce:24:
                    f2:1a:3b:9a:56:22:f4:4c:28:a6:7e:83:d4:5e:11:
                    93:19:c0:91:e6:04:91:78:b4:02:15:48:82:4b:5b:
                    9b:d8:f7:51:13:ec:2b:f9:92:e0:74:11:72:03:6e:
                    f2:fd:5c:11:b1:6b:99:ef:3f:8a:73:f6:7d:e0:07:
                    f6:8a:6d:73:07:b9:7e:55:4e:54:d4:b3:09:3d:c1:
                    31:bf:86:64:1a:d5:26:2f:a2:a8:4b:a4:a4:94:bc:
                    aa:e6:85:03:b4:6f:8a:bf:e5:62:3c:23:32:87:67:
                    21:c4:cb
                Exponent: 65537 (0x10001)
        X509v3 extensions:
            X509v3 Basic Constraints: 
                CA:FALSE
            X509v3 Key Usage: 
                Digital Signature, Non Repudiation, Key Encipherment
            X509v3 Subject Alternative Name: 
                DNS:annot-transformer
    Signature Algorithm: sha256WithRSAEncryption
         3f:d5:42:9e:5e:55:01:75:28:d0:cf:11:e1:63:ea:be:23:4c:
         7c:61:61:d6:fa:93:21:8a:2c:6c:f4:ef:1e:66:c6:61:90:0e:
         13:f1:6f:c5:71:43:1a:13:88:97:9c:fe:ec:21:66:52:5c:d1:
         2f:a0:a2:0c:fc:8d:96:52:76:f4:56:26:db:51:4a:e6:a2:e9:
         bf:5d:df:51:4d:7d:d5:e8:ad:24:4e:01:7b:b6:65:de:d3:d1:
         e8:c3:4c:c3:12:b0:a9:b9:86:06:22:99:46:cc:72:9f:6f:2a:
         10:8e:90:88:73:46:45:e1:11:7e:7e:72:f8:db:35:20:55:81:
         ea:de:25:35:e6:f2:cf:cf:a3:b8:94:ab:f2:8a:f1:09:26:ec:
         dd:cc:3e:ce:c0:d8:1a:b9:bf:08:62:f2:cc:aa:72:5d:29:06:
         a0:23:94:d0:1f:1c:f7:fe:17:c0:6a:91:2c:ac:cf:6f:b2:bc:
         7a:95:95:79:6d:dd:17:46:b0:9a:00:b7:87:ee:16:09:9d:50:
         90:55:2b:b8:4e:17:65:1a:ee:97:ff:ca:8c:b0:41:ff:30:31:
         a1:56:ee:f1:76:3b:c3:c2:35:03:94:88:00:d3:56:79:59:b5:
         18:44:66:17:0b:2a:c2:30:94:4c:9f:c9:80:34:1e:81:f0:5c:
         ae:51:a2:a3
-----BEGIN CERTIFICATE-----
MIIErTCCA5WgAwIBAgIBBzANBgkqhkiG9w0BAQsFADBzMQ0wCwYDVQQDEwR0ZENB
MRMwEQYDVQQIEwpQb250ZXZlZHJhMQswCQYDVQQGEwJFUzEgMB4GCSqGSIb3DQEJ
ARYRdGRjYUBncmFkaWFudC5vcmcxETAPBgNVBAoTCEdyYWRpYW50MQswCQYDVQQL
EwJDQTAeFw0xNzEyMTMxNTAxNDZaFw0yMjEyMTIxNTAxNDZaMIGGMRowGAYDVQQD
ExFhbm5vdC10cmFuc2Zvcm1lcjETMBEGA1UECBMKUG9udGV2ZWRyYTELMAkGA1UE
BhMCRVMxHzAdBgkqhkiG9w0BCQEWEHNzcF90ZEB3aXRkb20uZXUxDzANBgNVBAoT
BldpdGRvbTEUMBIGA1UECxMLVHJhbnNmb3JtZXIwggIiMA0GCSqGSIb3DQEBAQUA
A4ICDwAwggIKAoICAQD7mgBd8LapANPc9W5ew3zvh5AoadWZdPzRnIN17sAfB7WJ
oCYeNU0ejZSkL3QmETOMFu9K+y+960sGfzpLWBYVc29PPi2vo2Fc4LTNVJTRqeI0
YffWcE2lPABhvsdlLSd5l5HI0aGhXqzJ4AJ6b7dkK8eQ3RGzhpToWulyFAc+0+1B
9X22sEYKlFVEyOZ2p4xLSdHXBy69LBiGwAnzmkyH0FMlkqt9Z5NCGpn6z8/Btct2
Or697X13DZZqJ7+rqe8QuApPXIkuc8BQrKKsUyn4OS7/ykKZB4dZdQyrx8m6vjlK
DiG+MmBepncwx66MX8DdzLMI8wDxSCYIp9Gs+IJRdd66eKgCrMqqaAskZWY7ePud
+nCuM/VfJjnIDzPNYfSx6VtrAfn58ak2CblToDXV+KEmJ9fPqucSfncdsVvMgtgn
YotA4e63MgflgNtqqlG92XyAj9zvviyhYXsmqoxVA73ZWCVI+boflyPgrHX7hDnw
kKYmoXSEtXEtqXgcDvMdqgM7gADsnkLnSQSGPLPl2BjOJPIaO5pWIvRMKKZ+g9Re
EZMZwJHmBJF4tAIVSIJLW5vY91ET7Cv5kuB0EXIDbvL9XBGxa5nvP4pz9n3gB/aK
bXMHuX5VTlTUswk9wTG/hmQa1SYvoqhLpKSUvKrmhQO0b4q/5WI8IzKHZyHEywID
AQABozgwNjAJBgNVHRMEAjAAMAsGA1UdDwQEAwIF4DAcBgNVHREEFTATghFhbm5v
dC10cmFuc2Zvcm1lcjANBgkqhkiG9w0BAQsFAAOCAQEAP9VCnl5VAXUo0M8R4WPq
viNMfGFh1vqTIYosbPTvHmbGYZAOE/FvxXFDGhOIl5z+7CFmUlzRL6CiDPyNllJ2
9FYm21FK5qLpv13fUU191eitJE4Be7Zl3tPR6MNMwxKwqbmGBiKZRsxyn28qEI6Q
iHNGReERfn5y+Ns1IFWB6t4lNebyz8+juJSr8orxCSbs3cw+zsDYGrm/CGLyzKpy
XSkGoCOU0B8c9/4XwGqRLKzPb7K8epWVeW3dF0awmgC3h+4WCZ1QkFUruE4XZRru
l//KjLBB/zAxoVbu8XY7w8I1A5SIANNWeVm1GERmFwsqwjCUTJ/JgDQegfBcrlGi
ow==
-----END CERTIFICATE-----
