Certificate:
    Data:
        Version: 3 (0x2)
        Serial Number: 3 (0x3)
    Signature Algorithm: sha256WithRSAEncryption
        Issuer: CN=witdomCA, ST=Pontevedra, C=ES/emailAddress=ca@witdom.eu, O=Witdom, OU=CA
        Validity
            Not Before: Nov 25 17:01:29 2016 GMT
            Not After : Nov 24 17:01:29 2021 GMT
        Subject: CN=broker-td, ST=Pontevedra, C=ES/emailAddress=broker@witdom.eu, O=Witdom, OU=Broker
        Subject Public Key Info:
            Public Key Algorithm: rsaEncryption
                Public-Key: (4096 bit)
                Modulus:
                    00:e8:ec:e9:7d:55:f0:5f:26:97:7c:4b:fe:3d:8a:
                    c1:d3:36:f6:5f:2f:7c:7a:4d:13:a4:60:86:3e:1b:
                    ac:ea:11:19:d6:a1:76:31:15:81:b8:dc:a0:ad:07:
                    af:29:61:c9:ed:44:51:16:c0:19:6c:60:34:73:ef:
                    86:54:08:79:9a:fb:30:ac:f9:f9:0d:ff:51:45:f3:
                    38:42:8d:27:a5:af:a2:c9:9f:cf:56:e9:35:aa:2c:
                    d3:bc:24:37:a3:96:b8:e8:b9:12:00:57:51:95:d0:
                    5b:49:a4:7e:00:bb:f4:97:67:a5:38:96:ff:8d:74:
                    1e:2e:a0:26:fb:03:e7:0e:9e:0c:9c:6c:0f:95:1d:
                    50:1e:e3:6b:31:67:38:40:e4:4a:04:ee:6d:e3:f8:
                    28:d3:49:16:f9:26:ff:1e:91:2c:d7:1a:0a:5a:5d:
                    55:78:94:a4:13:51:d6:37:ae:64:d7:0a:f6:9d:fa:
                    3d:59:3f:da:a9:70:cf:a8:ad:87:78:d7:f7:b2:4b:
                    ea:a7:ff:c3:a9:cf:82:f5:9b:17:03:1e:db:b6:bd:
                    49:c9:d9:df:f0:85:4d:c3:43:fe:fa:e6:75:d6:c4:
                    a7:c5:ec:c6:bd:e4:8c:b9:44:b8:e8:91:f3:1a:03:
                    04:48:ed:62:02:6a:4c:11:b2:2b:06:0d:63:db:03:
                    38:8c:0c:a1:7e:03:cf:8c:92:02:bb:7f:4b:56:1c:
                    61:57:eb:63:49:d4:af:c9:e1:57:a5:cc:fa:a0:de:
                    3d:b8:0c:4a:f6:ad:f2:ef:a9:71:45:61:b1:84:15:
                    d2:15:9b:29:4e:5f:be:da:40:02:43:8d:47:9c:c3:
                    f4:40:41:79:6d:a3:e9:26:12:19:74:7f:78:cf:64:
                    94:99:d1:e6:69:50:18:09:e2:0a:f8:9c:e7:a8:ce:
                    1a:3d:bb:da:ae:2a:9a:5a:6e:4c:98:1b:bf:db:ce:
                    d2:d2:4f:fc:f8:d7:5d:53:c0:d4:cd:e0:09:4d:2f:
                    fe:19:48:22:d8:f9:b5:77:57:33:54:af:e3:30:a4:
                    3f:92:2c:b0:13:fc:dc:17:e6:7f:70:74:5b:3f:da:
                    7b:bb:2e:7a:fa:69:cb:7d:24:c2:a7:ca:f4:07:3f:
                    09:fa:24:a7:0f:22:eb:61:e6:bc:42:3b:93:de:83:
                    f3:64:53:37:4f:c0:9b:ac:b7:22:e5:20:9d:e8:1a:
                    d8:e1:72:da:59:e7:7a:2b:19:80:0a:9b:82:b5:bd:
                    1d:50:e4:a6:84:c5:86:8f:ec:13:4a:c0:8c:f9:9b:
                    5d:bb:72:65:b2:5d:37:46:9b:d3:8c:7b:38:b3:aa:
                    fe:61:78:1a:6e:f8:2e:cd:88:51:c0:51:da:11:7a:
                    40:1b:25
                Exponent: 65537 (0x10001)
        X509v3 extensions:
            X509v3 Basic Constraints: 
                CA:FALSE
            X509v3 Key Usage: 
                Digital Signature, Non Repudiation, Key Encipherment
            X509v3 Subject Alternative Name: 
                DNS:broker-td
    Signature Algorithm: sha256WithRSAEncryption
         4b:69:a3:3a:f2:4d:f1:19:ef:e7:75:4d:98:2d:d9:c6:bb:61:
         06:cc:a9:7b:b3:a8:39:35:04:d7:41:3e:63:2a:42:3e:96:e4:
         a0:3a:21:b3:81:55:c2:5e:43:91:f6:5b:50:d0:cd:47:8a:4a:
         fd:fc:63:39:53:f3:b8:c0:87:a3:82:3d:3c:8f:08:79:9a:ec:
         b3:c3:72:90:d6:a3:92:72:e7:ae:87:ab:5a:a8:c6:e4:5c:ac:
         a9:e3:7a:58:09:ee:a3:8f:23:0f:c0:11:cd:b9:a8:9c:06:9e:
         71:d2:09:9d:c5:12:f6:cf:75:d5:77:68:d1:fd:6e:a1:9d:1d:
         9f:8b:ac:a5:0b:94:fd:fe:9d:44:a8:48:84:b2:25:cc:fe:9b:
         59:6d:da:f4:2f:00:bd:7f:2b:78:84:34:d9:93:3f:ec:42:e0:
         ce:2c:79:f0:63:6f:89:ad:ff:68:f2:45:86:49:c7:2d:17:59:
         bb:1b:cc:33:bf:1f:cc:d5:7b:d2:73:1e:95:11:8f:6b:e0:e4:
         2d:70:6e:b8:0c:02:92:3f:b2:5c:ec:e5:97:c2:47:f5:20:0f:
         0f:64:78:0f:69:e6:f5:b2:d0:b5:13:88:1f:fa:2f:48:5a:e5:
         90:01:ae:ab:a3:4b:e4:37:e5:cf:f1:83:4e:37:dc:17:92:fb:
         a8:69:7d:14:5f:ab:c3:b4:49:a4:0b:7e:37:36:21:e2:b0:75:
         84:1a:22:b1:bc:c7:31:99:fe:f6:b9:ea:73:57:2a:1c:62:ed:
         2f:12:0b:09:a4:13:75:a8:b9:34:72:fb:27:9c:c6:2d:7e:1d:
         fa:e5:04:49:39:6d:03:e2:81:ed:4b:ed:8c:66:2e:b2:4a:a0:
         af:a2:83:b2:5b:e6:27:51:16:eb:31:bb:e3:6a:4d:11:10:1d:
         92:6e:83:87:f7:88:a3:9a:bc:fd:1a:f1:68:5e:94:c4:62:51:
         cd:19:6b:ca:cf:91:ae:0f:03:43:4e:b4:1e:43:2b:64:3c:d0:
         ca:f4:c9:6c:c1:70:3f:d3:63:64:99:d2:81:ea:f0:d8:9c:34:
         73:6e:69:75:b7:eb:aa:72:16:aa:50:e7:d1:93:8f:e2:bf:11:
         f7:59:8f:0e:17:68:48:bb:37:19:ff:d0:72:f9:13:d4:ec:34:
         bd:f7:d7:cb:0a:9c:0d:3a:fb:98:80:37:1b:94:a7:da:86:c6:
         21:b0:18:fa:96:0a:74:10:24:8d:d7:06:8e:36:1c:80:89:bf:
         a5:5f:2e:f1:44:74:91:72:0a:b5:03:8d:32:83:44:86:56:a1:
         1a:61:51:30:84:69:d6:09:ad:2b:e4:19:ff:b1:6a:96:5f:da:
         82:36:d4:b7:60:37:95:c8
-----BEGIN CERTIFICATE-----
MIIFlDCCA3ygAwIBAgIBAzANBgkqhkiG9w0BAQsFADBwMREwDwYDVQQDEwh3aXRk
b21DQTETMBEGA1UECBMKUG9udGV2ZWRyYTELMAkGA1UEBhMCRVMxGzAZBgkqhkiG
9w0BCQEWDGNhQHdpdGRvbS5ldTEPMA0GA1UEChMGV2l0ZG9tMQswCQYDVQQLEwJD
QTAeFw0xNjExMjUxNzAxMjlaFw0yMTExMjQxNzAxMjlaMHkxEjAQBgNVBAMTCWJy
b2tlci10ZDETMBEGA1UECBMKUG9udGV2ZWRyYTELMAkGA1UEBhMCRVMxHzAdBgkq
hkiG9w0BCQEWEGJyb2tlckB3aXRkb20uZXUxDzANBgNVBAoTBldpdGRvbTEPMA0G
A1UECxMGQnJva2VyMIICIjANBgkqhkiG9w0BAQEFAAOCAg8AMIICCgKCAgEA6Ozp
fVXwXyaXfEv+PYrB0zb2Xy98ek0TpGCGPhus6hEZ1qF2MRWBuNygrQevKWHJ7URR
FsAZbGA0c++GVAh5mvswrPn5Df9RRfM4Qo0npa+iyZ/PVuk1qizTvCQ3o5a46LkS
AFdRldBbSaR+ALv0l2elOJb/jXQeLqAm+wPnDp4MnGwPlR1QHuNrMWc4QORKBO5t
4/go00kW+Sb/HpEs1xoKWl1VeJSkE1HWN65k1wr2nfo9WT/aqXDPqK2HeNf3skvq
p//Dqc+C9ZsXAx7btr1Jydnf8IVNw0P++uZ11sSnxezGveSMuUS46JHzGgMESO1i
AmpMEbIrBg1j2wM4jAyhfgPPjJICu39LVhxhV+tjSdSvyeFXpcz6oN49uAxK9q3y
76lxRWGxhBXSFZspTl++2kACQ41HnMP0QEF5baPpJhIZdH94z2SUmdHmaVAYCeIK
+JznqM4aPbvariqaWm5MmBu/287S0k/8+NddU8DUzeAJTS/+GUgi2Pm1d1czVK/j
MKQ/kiywE/zcF+Z/cHRbP9p7uy56+mnLfSTCp8r0Bz8J+iSnDyLrYea8QjuT3oPz
ZFM3T8CbrLci5SCd6BrY4XLaWed6KxmACpuCtb0dUOSmhMWGj+wTSsCM+Ztdu3Jl
sl03RpvTjHs4s6r+YXgabvguzYhRwFHaEXpAGyUCAwEAAaMwMC4wCQYDVR0TBAIw
ADALBgNVHQ8EBAMCBeAwFAYDVR0RBA0wC4IJYnJva2VyLXRkMA0GCSqGSIb3DQEB
CwUAA4ICAQBLaaM68k3xGe/ndU2YLdnGu2EGzKl7s6g5NQTXQT5jKkI+luSgOiGz
gVXCXkOR9ltQ0M1Hikr9/GM5U/O4wIejgj08jwh5muyzw3KQ1qOScueuh6taqMbk
XKyp43pYCe6jjyMPwBHNuaicBp5x0gmdxRL2z3XVd2jR/W6hnR2fi6ylC5T9/p1E
qEiEsiXM/ptZbdr0LwC9fyt4hDTZkz/sQuDOLHnwY2+Jrf9o8kWGScctF1m7G8wz
vx/M1XvScx6VEY9r4OQtcG64DAKSP7Jc7OWXwkf1IA8PZHgPaeb1stC1E4gf+i9I
WuWQAa6ro0vkN+XP8YNON9wXkvuoaX0UX6vDtEmkC343NiHisHWEGiKxvMcxmf72
uepzVyocYu0vEgsJpBN1qLk0cvsnnMYtfh365QRJOW0D4oHtS+2MZi6ySqCvooOy
W+YnURbrMbvjak0REB2SboOH94ijmrz9GvFoXpTEYlHNGWvKz5GuDwNDTrQeQytk
PNDK9MlswXA/02NkmdKB6vDYnDRzbml1t+uqchaqUOfRk4/ivxH3WY8OF2hIuzcZ
/9By+RPU7DS999fLCpwNOvuYgDcblKfahsYhsBj6lgp0ECSN1waONhyAib+lXy7x
RHSRcgq1A40yg0SGVqEaYVEwhGnWCa0r5Bn/sWqWX9qCNtS3YDeVyA==
-----END CERTIFICATE-----
