Certificate:
    Data:
        Version: 3 (0x2)
        Serial Number: 1 (0x1)
    Signature Algorithm: sha256WithRSAEncryption
        Issuer: CN=witdomCA, ST=Pontevedra, C=ES/emailAddress=ca@witdom.eu, O=Witdom, OU=CA
        Validity
            Not Before: Oct 19 19:00:53 2016 GMT
            Not After : Oct 18 19:00:53 2021 GMT
        Subject: CN=localhost, ST=Pontevedra, C=ES/emailAddress=broker@witdom.eu, O=Witdom, OU=Broker
        Subject Public Key Info:
            Public Key Algorithm: rsaEncryption
                Public-Key: (4096 bit)
                Modulus:
                    00:e5:7d:7f:93:0b:7a:eb:84:20:19:46:1a:87:23:
                    39:48:ee:bc:92:ce:10:64:a2:6e:c7:f8:9d:47:44:
                    b5:2f:69:d8:16:8d:f1:f7:fc:55:3e:4b:6b:5e:1b:
                    7e:50:6e:96:f8:48:09:94:21:4d:0e:c1:21:b1:e9:
                    bd:1c:0e:0f:0a:59:51:50:ff:66:b8:74:c4:6a:8c:
                    15:67:15:ac:09:00:e9:09:df:1d:a0:d4:88:02:d2:
                    59:9f:69:25:f3:e1:db:10:56:66:44:ea:53:84:b3:
                    54:b3:d0:45:14:fa:a3:f3:23:87:19:88:88:fc:cd:
                    c9:41:01:37:38:32:42:00:01:4c:81:26:7b:c0:47:
                    ee:eb:63:f7:de:73:2a:06:23:d6:bf:22:81:65:da:
                    8d:3f:9f:97:5d:7c:bc:a5:59:4e:3c:c6:3b:d2:3f:
                    5d:42:73:93:ac:71:6f:e6:b0:54:5a:c0:15:e5:bc:
                    4d:b0:e7:0d:d7:82:3b:ab:b9:c1:24:83:4d:13:12:
                    70:21:82:b1:54:0f:19:ee:a5:8c:cb:d0:0a:53:b2:
                    9f:bc:70:3e:2f:cb:0a:19:0a:f6:4c:63:70:3c:08:
                    2f:bb:ae:86:cc:de:78:13:b7:5c:04:7f:5f:a9:76:
                    5d:e1:6b:88:85:e8:12:65:31:16:95:d4:22:d5:88:
                    e9:1d:10:8d:c5:a6:93:cb:eb:9c:e2:10:68:aa:4d:
                    6e:7d:6d:f9:95:db:d8:c5:0e:7a:77:3c:ea:b4:e0:
                    39:47:9f:f0:99:c3:43:f7:97:d7:bb:84:e6:e1:43:
                    b9:05:cb:b6:d6:cb:17:76:6e:19:67:8c:dc:62:c6:
                    47:e3:fb:07:3e:99:08:32:04:69:4c:44:7e:d7:bf:
                    6f:43:a2:58:9b:a6:c3:b5:81:4d:4f:72:1c:8d:52:
                    8d:43:40:7d:e4:1b:1a:9d:00:a8:96:84:2b:1b:69:
                    72:55:93:00:f1:8a:f3:88:a7:31:c5:6e:fc:b3:30:
                    40:cd:2b:94:33:f0:a3:ce:40:8a:fe:f1:52:a5:7f:
                    c6:dc:5d:53:35:5d:6b:6d:1b:c0:5a:1b:d2:e9:6e:
                    c4:53:69:05:a4:72:40:38:24:6f:16:26:97:84:26:
                    24:e2:69:29:a8:e8:f7:bf:6a:bf:3b:d6:50:91:68:
                    64:c8:04:c8:a3:5e:f8:dd:34:46:70:2f:e8:c3:78:
                    9d:8a:4f:3c:47:ff:e6:3d:a4:4f:18:5e:1a:3b:ec:
                    cf:90:72:dc:ce:87:b7:f7:a8:e4:0b:fc:9f:7e:f9:
                    c7:9f:3b:3b:6b:6c:90:ab:4d:a1:90:44:ad:aa:7c:
                    bd:0f:7b:a9:e8:af:2b:6a:85:37:ee:dd:6b:16:bf:
                    e0:6a:db
                Exponent: 65537 (0x10001)
        X509v3 extensions:
            X509v3 Basic Constraints: 
                CA:FALSE
            X509v3 Key Usage: 
                Digital Signature, Non Repudiation, Key Encipherment
            X509v3 Subject Alternative Name: 
                DNS:localhost
    Signature Algorithm: sha256WithRSAEncryption
         27:e2:c2:5c:99:f5:60:d7:67:ab:01:11:1d:ca:96:64:63:c4:
         16:95:f1:4a:8b:26:55:e7:cd:5d:8a:85:85:53:8b:09:47:3d:
         81:71:11:2e:48:d9:14:c7:b5:52:a8:66:ea:dd:0b:66:f8:d8:
         48:88:df:15:2e:b7:3e:7e:a5:2f:ce:73:72:0c:84:cc:77:36:
         17:53:ad:28:ba:e4:c1:d6:e6:5e:5a:bf:97:9f:8b:0e:7a:7a:
         2a:07:9e:2c:9e:13:f8:a3:c7:65:83:fb:06:84:63:7a:2a:16:
         ff:1a:cd:fb:e7:8b:a7:13:94:c3:93:2f:8b:8a:b3:32:36:87:
         58:81:d1:4b:e5:14:af:4c:f3:06:b4:f4:02:b9:68:2f:24:e6:
         4a:65:4f:92:df:18:05:c6:79:7d:43:b6:47:b5:f7:b5:9b:2f:
         08:13:78:64:5d:96:bb:27:c9:c6:99:be:7b:e9:88:66:99:86:
         78:57:30:0f:04:62:19:fd:c6:9d:4f:8a:b3:77:a6:8a:02:4b:
         63:c6:f8:48:de:10:1c:93:41:77:14:40:ad:da:b1:c3:9a:07:
         fc:2d:c9:eb:ae:f8:f4:52:64:26:ca:9e:20:99:14:d0:9b:3c:
         b7:af:72:3d:98:15:10:84:eb:d8:06:3c:b2:6c:a2:d8:a5:4f:
         38:b9:61:b0:dc:08:c7:b1:73:57:27:0a:43:ec:c1:49:a0:cd:
         33:d9:85:7b:e3:41:c9:1e:4a:34:81:6a:77:8d:a8:bd:c3:c0:
         b0:34:72:46:78:4e:f1:7c:5f:a0:ac:2b:7d:72:2e:fc:e0:3e:
         b6:60:37:01:c5:fc:3b:5e:0d:4a:f0:53:d1:c8:44:67:74:24:
         1f:a4:a4:d5:0a:60:e3:83:9b:bf:e8:0f:17:e9:cd:85:d6:56:
         dc:17:2b:ae:fc:e2:87:f6:b8:a3:25:63:5d:74:b6:c1:3c:82:
         11:89:2b:d0:3a:0d:18:25:f6:a6:a1:7b:6e:59:ac:0e:37:e7:
         74:dd:ff:2e:1b:02:98:77:79:78:aa:8e:35:bb:d5:da:f3:48:
         f3:a1:62:16:fc:a9:75:00:06:d0:96:59:4a:f0:1a:ba:f7:e3:
         d6:c7:84:de:8f:f7:41:97:73:00:ff:d0:ec:4b:f7:d8:2d:2f:
         5f:19:70:b0:40:aa:8e:87:9c:54:61:2f:6d:53:1b:5f:c6:70:
         51:43:ba:e6:11:5d:f4:c9:58:e8:3c:dd:9c:7f:ed:fd:23:0e:
         82:77:68:e2:3f:b3:80:e3:89:4c:34:38:87:f7:37:0d:f8:20:
         88:a2:63:3d:64:eb:33:9a:69:8d:30:48:2a:31:ec:97:4e:63:
         1d:d4:88:53:53:0b:8d:52
-----BEGIN CERTIFICATE-----
MIIFlDCCA3ygAwIBAgIBATANBgkqhkiG9w0BAQsFADBwMREwDwYDVQQDEwh3aXRk
b21DQTETMBEGA1UECBMKUG9udGV2ZWRyYTELMAkGA1UEBhMCRVMxGzAZBgkqhkiG
9w0BCQEWDGNhQHdpdGRvbS5ldTEPMA0GA1UEChMGV2l0ZG9tMQswCQYDVQQLEwJD
QTAeFw0xNjEwMTkxOTAwNTNaFw0yMTEwMTgxOTAwNTNaMHkxEjAQBgNVBAMTCWxv
Y2FsaG9zdDETMBEGA1UECBMKUG9udGV2ZWRyYTELMAkGA1UEBhMCRVMxHzAdBgkq
hkiG9w0BCQEWEGJyb2tlckB3aXRkb20uZXUxDzANBgNVBAoTBldpdGRvbTEPMA0G
A1UECxMGQnJva2VyMIICIjANBgkqhkiG9w0BAQEFAAOCAg8AMIICCgKCAgEA5X1/
kwt664QgGUYahyM5SO68ks4QZKJux/idR0S1L2nYFo3x9/xVPktrXht+UG6W+EgJ
lCFNDsEhsem9HA4PCllRUP9muHTEaowVZxWsCQDpCd8doNSIAtJZn2kl8+HbEFZm
ROpThLNUs9BFFPqj8yOHGYiI/M3JQQE3ODJCAAFMgSZ7wEfu62P33nMqBiPWvyKB
ZdqNP5+XXXy8pVlOPMY70j9dQnOTrHFv5rBUWsAV5bxNsOcN14I7q7nBJINNExJw
IYKxVA8Z7qWMy9AKU7KfvHA+L8sKGQr2TGNwPAgvu66GzN54E7dcBH9fqXZd4WuI
hegSZTEWldQi1YjpHRCNxaaTy+uc4hBoqk1ufW35ldvYxQ56dzzqtOA5R5/wmcND
95fXu4Tm4UO5Bcu21ssXdm4ZZ4zcYsZH4/sHPpkIMgRpTER+179vQ6JYm6bDtYFN
T3IcjVKNQ0B95BsanQColoQrG2lyVZMA8YrziKcxxW78szBAzSuUM/CjzkCK/vFS
pX/G3F1TNV1rbRvAWhvS6W7EU2kFpHJAOCRvFiaXhCYk4mkpqOj3v2q/O9ZQkWhk
yATIo1743TRGcC/ow3idik88R//mPaRPGF4aO+zPkHLczoe396jkC/yffvnHnzs7
a2yQq02hkEStqny9D3up6K8raoU37t1rFr/gatsCAwEAAaMwMC4wCQYDVR0TBAIw
ADALBgNVHQ8EBAMCBeAwFAYDVR0RBA0wC4IJbG9jYWxob3N0MA0GCSqGSIb3DQEB
CwUAA4ICAQAn4sJcmfVg12erAREdypZkY8QWlfFKiyZV581dioWFU4sJRz2BcREu
SNkUx7VSqGbq3Qtm+NhIiN8VLrc+fqUvznNyDITMdzYXU60ouuTB1uZeWr+Xn4sO
enoqB54snhP4o8dlg/sGhGN6Khb/Gs3754unE5TDky+LirMyNodYgdFL5RSvTPMG
tPQCuWgvJOZKZU+S3xgFxnl9Q7ZHtfe1my8IE3hkXZa7J8nGmb576YhmmYZ4VzAP
BGIZ/cadT4qzd6aKAktjxvhI3hAck0F3FECt2rHDmgf8Lcnrrvj0UmQmyp4gmRTQ
mzy3r3I9mBUQhOvYBjyybKLYpU84uWGw3AjHsXNXJwpD7MFJoM0z2YV740HJHko0
gWp3jai9w8CwNHJGeE7xfF+grCt9ci784D62YDcBxfw7Xg1K8FPRyERndCQfpKTV
CmDjg5u/6A8X6c2F1lbcFyuu/OKH9rijJWNddLbBPIIRiSvQOg0YJfamoXtuWawO
N+d03f8uGwKYd3l4qo41u9Xa80jzoWIW/Kl1AAbQlllK8Bq69+PWx4Tej/dBl3MA
/9DsS/fYLS9fGXCwQKqOh5xUYS9tUxtfxnBRQ7rmEV30yVjoPN2cf+39Iw6Cd2ji
P7OA44lMNDiH9zcN+CCIomM9ZOszmmmNMEgqMeyXTmMd1IhTUwuNUg==
-----END CERTIFICATE-----
