Certificate:
    Data:
        Version: 3 (0x2)
        Serial Number: 4 (0x4)
    Signature Algorithm: sha256WithRSAEncryption
        Issuer: CN=witdomCA, ST=Pontevedra, C=ES/emailAddress=ca@witdom.eu, O=Witdom, OU=CA
        Validity
            Not Before: Nov 25 17:02:40 2016 GMT
            Not After : Nov 24 17:02:40 2021 GMT
        Subject: CN=broker-ud, ST=Pontevedra, C=ES/emailAddress=broker@witdom.eu, O=Witdom, OU=Broker
        Subject Public Key Info:
            Public Key Algorithm: rsaEncryption
                Public-Key: (4096 bit)
                Modulus:
                    00:c4:da:c5:98:08:e1:2a:93:25:a6:ca:c8:4a:53:
                    c4:38:3a:19:40:21:d2:ba:b5:11:cd:81:59:70:e7:
                    5d:ed:81:e0:05:ce:bd:dd:d3:d4:be:32:2d:f4:a3:
                    2f:51:d2:50:69:64:f3:6d:98:d0:86:b8:bb:3e:63:
                    e2:fb:24:3b:32:94:bb:7e:32:6d:bd:41:b8:71:59:
                    4c:a2:1d:df:67:3e:bc:58:b3:93:8a:54:5b:be:8a:
                    22:1e:91:6f:dc:1a:c0:89:84:62:f6:50:a6:d7:dd:
                    ca:9f:8e:04:3e:85:49:43:dd:ee:cc:7b:2b:62:8f:
                    eb:15:a6:36:ac:72:4f:b8:46:87:69:75:59:f9:4c:
                    28:99:98:31:b2:0f:cf:40:f4:a9:c1:58:31:94:2b:
                    90:49:35:4e:11:53:ad:b8:3a:6c:bb:ab:bc:eb:01:
                    e0:e2:9b:a1:15:68:6b:9a:82:9b:95:a4:c0:10:38:
                    2e:44:b1:bf:a4:95:f3:b6:01:03:20:63:65:26:14:
                    c9:16:bb:c6:04:9d:d9:cd:01:c3:80:d0:2b:b2:49:
                    16:28:fa:1c:35:b8:b1:e1:aa:67:8a:87:cc:b6:0e:
                    17:6b:a6:51:d3:38:16:f6:5b:99:eb:2d:24:99:4b:
                    09:07:b4:7f:1b:55:c7:62:11:0f:c2:04:49:30:58:
                    16:34:b0:4b:f9:b3:23:a0:99:32:4d:6a:e2:b1:22:
                    3c:14:eb:c4:93:db:79:d4:00:c8:de:a5:71:70:ac:
                    3f:94:56:01:25:54:a8:17:32:99:7d:05:fc:f8:02:
                    4b:1b:b9:94:12:28:5c:90:58:c2:56:be:06:11:f7:
                    ed:6b:34:81:5c:cb:a8:02:94:e4:16:d5:38:5a:af:
                    f0:01:1c:90:02:b7:2e:d5:13:ae:56:ff:f0:d0:7d:
                    29:6d:c8:5b:b8:05:f9:f0:74:de:8d:f8:03:84:ec:
                    77:59:bd:3f:b1:61:92:8c:51:c1:3c:7c:6c:c6:40:
                    a4:bf:f2:62:21:35:f8:03:d9:a5:25:b9:a6:93:f1:
                    fb:89:af:e0:f0:94:27:79:13:08:03:21:75:b2:21:
                    10:5f:99:fb:14:78:62:27:03:08:a1:7c:a4:9b:22:
                    b4:f0:62:1c:24:f4:57:35:78:5f:d9:f2:ff:38:a5:
                    d3:5d:ba:51:2d:40:29:c5:49:ca:52:0d:bb:20:81:
                    99:8f:ae:b7:18:ae:4a:d3:d6:89:a4:96:e4:45:99:
                    72:a4:c1:46:4e:ec:a7:e7:43:5a:a0:7f:78:21:d4:
                    32:7f:cd:91:12:62:e1:41:aa:ea:bc:41:f7:f1:06:
                    04:00:19:4d:e3:64:f4:23:ed:9c:7d:73:8b:4a:b4:
                    07:82:8d
                Exponent: 65537 (0x10001)
        X509v3 extensions:
            X509v3 Basic Constraints: 
                CA:FALSE
            X509v3 Key Usage: 
                Digital Signature, Non Repudiation, Key Encipherment
            X509v3 Subject Alternative Name: 
                DNS:broker-ud
    Signature Algorithm: sha256WithRSAEncryption
         aa:84:08:f9:9b:21:e5:00:fd:21:23:07:93:ad:a0:29:ad:35:
         4c:20:af:60:68:08:d5:15:dc:d8:d6:c3:35:68:d4:67:0f:b1:
         1b:94:06:a0:54:71:c5:fd:98:98:54:f7:15:41:02:46:c4:bd:
         5e:e6:d5:42:38:35:37:a4:9b:cf:2d:1e:d8:86:3b:e1:62:ee:
         63:8a:84:f4:d2:93:e1:55:80:56:0b:b2:40:4c:d4:4d:fe:70:
         24:05:25:c1:c1:0f:8d:74:1a:c7:98:ee:f5:c2:05:71:34:35:
         2d:6a:db:b4:6f:2b:96:5f:d0:8c:3e:33:24:a0:8d:8f:0c:7e:
         19:b5:68:27:fa:78:40:0d:48:38:3e:08:03:4c:e5:21:3a:d1:
         c9:01:3f:fb:73:90:ca:17:11:d3:49:53:09:29:ee:12:8a:e5:
         ce:d3:b2:33:5c:69:fa:9d:0e:43:ac:72:b2:9b:6b:f4:64:33:
         7c:6e:08:3a:cb:a8:4e:25:6c:45:b9:fb:90:8f:f2:da:86:1f:
         5b:c4:57:a2:80:fd:65:a1:6d:1f:a5:e4:cf:6e:aa:26:e5:8c:
         09:a2:60:39:f4:c9:d9:bb:0f:b6:2b:39:4f:a5:e8:e3:1e:c5:
         4b:5f:e1:70:5c:d5:d6:78:6e:5b:6d:e9:2b:43:cd:ab:a1:43:
         18:7a:34:29:85:a3:09:12:ae:f6:9c:80:5b:73:e1:53:5a:a7:
         21:6f:4c:91:ce:35:32:c9:dd:cd:02:9c:ab:0c:cd:09:4c:07:
         16:cc:76:d4:8f:8c:0b:11:c0:96:b4:83:09:a5:68:b2:13:17:
         42:b7:3f:4e:bf:fb:9e:43:6b:23:99:b7:e3:ca:eb:45:12:c0:
         f8:9a:c1:7b:d2:26:c3:4b:ed:b5:cf:81:fd:e0:c1:85:ff:3c:
         95:d7:e6:d1:8d:c2:a0:b9:42:16:00:00:80:9f:21:9a:cc:fd:
         97:80:4a:08:e8:1c:3c:d6:0a:52:9a:28:a6:33:f1:e9:c5:93:
         5c:0a:14:b6:dd:ac:41:fe:26:06:96:e5:a9:e2:09:64:55:a4:
         24:74:db:1e:ff:99:07:31:23:02:83:4c:eb:a2:0e:9c:3c:77:
         e1:e1:f5:0b:3b:13:cc:d5:64:aa:f0:94:0a:23:82:88:2b:9d:
         bf:4d:82:34:e0:25:aa:1f:f3:bc:91:0d:09:f6:a0:dc:a8:46:
         c1:0c:03:08:37:13:bf:85:5e:e2:3c:e3:e9:9b:f6:c1:07:53:
         7d:07:80:92:3e:64:bc:fc:e4:bf:fd:83:c6:fc:22:96:00:82:
         55:5c:94:85:63:25:a6:e3:64:01:ee:6f:c7:fb:71:f4:f4:09:
         ef:9b:f8:e9:5e:34:5c:b4
-----BEGIN CERTIFICATE-----
MIIFlDCCA3ygAwIBAgIBBDANBgkqhkiG9w0BAQsFADBwMREwDwYDVQQDEwh3aXRk
b21DQTETMBEGA1UECBMKUG9udGV2ZWRyYTELMAkGA1UEBhMCRVMxGzAZBgkqhkiG
9w0BCQEWDGNhQHdpdGRvbS5ldTEPMA0GA1UEChMGV2l0ZG9tMQswCQYDVQQLEwJD
QTAeFw0xNjExMjUxNzAyNDBaFw0yMTExMjQxNzAyNDBaMHkxEjAQBgNVBAMTCWJy
b2tlci11ZDETMBEGA1UECBMKUG9udGV2ZWRyYTELMAkGA1UEBhMCRVMxHzAdBgkq
hkiG9w0BCQEWEGJyb2tlckB3aXRkb20uZXUxDzANBgNVBAoTBldpdGRvbTEPMA0G
A1UECxMGQnJva2VyMIICIjANBgkqhkiG9w0BAQEFAAOCAg8AMIICCgKCAgEAxNrF
mAjhKpMlpsrISlPEODoZQCHSurURzYFZcOdd7YHgBc693dPUvjIt9KMvUdJQaWTz
bZjQhri7PmPi+yQ7MpS7fjJtvUG4cVlMoh3fZz68WLOTilRbvooiHpFv3BrAiYRi
9lCm193Kn44EPoVJQ93uzHsrYo/rFaY2rHJPuEaHaXVZ+UwomZgxsg/PQPSpwVgx
lCuQSTVOEVOtuDpsu6u86wHg4puhFWhrmoKblaTAEDguRLG/pJXztgEDIGNlJhTJ
FrvGBJ3ZzQHDgNArskkWKPocNbix4apniofMtg4Xa6ZR0zgW9luZ6y0kmUsJB7R/
G1XHYhEPwgRJMFgWNLBL+bMjoJkyTWrisSI8FOvEk9t51ADI3qVxcKw/lFYBJVSo
FzKZfQX8+AJLG7mUEihckFjCVr4GEfftazSBXMuoApTkFtU4Wq/wARyQArcu1ROu
Vv/w0H0pbchbuAX58HTejfgDhOx3Wb0/sWGSjFHBPHxsxkCkv/JiITX4A9mlJbmm
k/H7ia/g8JQneRMIAyF1siEQX5n7FHhiJwMIoXykmyK08GIcJPRXNXhf2fL/OKXT
XbpRLUApxUnKUg27IIGZj663GK5K09aJpJbkRZlypMFGTuyn50NaoH94IdQyf82R
EmLhQarqvEH38QYEABlN42T0I+2cfXOLSrQHgo0CAwEAAaMwMC4wCQYDVR0TBAIw
ADALBgNVHQ8EBAMCBeAwFAYDVR0RBA0wC4IJYnJva2VyLXVkMA0GCSqGSIb3DQEB
CwUAA4ICAQCqhAj5myHlAP0hIweTraAprTVMIK9gaAjVFdzY1sM1aNRnD7EblAag
VHHF/ZiYVPcVQQJGxL1e5tVCODU3pJvPLR7YhjvhYu5jioT00pPhVYBWC7JATNRN
/nAkBSXBwQ+NdBrHmO71wgVxNDUtatu0byuWX9CMPjMkoI2PDH4ZtWgn+nhADUg4
PggDTOUhOtHJAT/7c5DKFxHTSVMJKe4SiuXO07IzXGn6nQ5DrHKym2v0ZDN8bgg6
y6hOJWxFufuQj/Lahh9bxFeigP1loW0fpeTPbqom5YwJomA59MnZuw+2KzlPpejj
HsVLX+FwXNXWeG5bbekrQ82roUMYejQphaMJEq72nIBbc+FTWqchb0yRzjUyyd3N
ApyrDM0JTAcWzHbUj4wLEcCWtIMJpWiyExdCtz9Ov/ueQ2sjmbfjyutFEsD4msF7
0ibDS+21z4H94MGF/zyV1+bRjcKguUIWAACAnyGazP2XgEoI6Bw81gpSmiimM/Hp
xZNcChS23axB/iYGluWp4glkVaQkdNse/5kHMSMCg0zrog6cPHfh4fULOxPM1WSq
8JQKI4KIK52/TYI04CWqH/O8kQ0J9qDcqEbBDAMINxO/hV7iPOPpm/bBB1N9B4CS
PmS8/OS//YPG/CKWAIJVXJSFYyWm42QB7m/H+3H09Anvm/jpXjRctA==
-----END CERTIFICATE-----
